*** IR Dump After Annotation2MetadataPass on [module] ***
; ModuleID = '<source>'
source_filename = "<source>"
target datalayout = "e-m:e-p270:32:32-p271:32:32-p272:64:64-i64:64-f80:128-n8:16:32:64-S128"
target triple = "x86_64-unknown-linux-gnu"

@__const._Z17calc_neighborhoodiiPA80_A120_i.arr_movement_x = private unnamed_addr constant [8 x i32] [i32 -1, i32 -1, i32 1, i32 1, i32 1, i32 0, i32 1, i32 0], align 16
@__const._Z17calc_neighborhoodiiPA80_A120_i.arr_movement_y = private unnamed_addr constant [8 x i32] [i32 0, i32 -1, i32 0, i32 -1, i32 -1, i32 0, i32 -1, i32 -1], align 16

; Function Attrs: mustprogress nounwind uwtable
define dso_local noundef i32 @_Z17calc_neighborhoodiiPA80_A120_i(i32 noundef %0, i32 noundef %1, ptr noundef %2) #0 !dbg !257 {
  %4 = alloca i32, align 4
  %5 = alloca i32, align 4
  %6 = alloca ptr, align 8
  %7 = alloca [8 x i32], align 16
  %8 = alloca [8 x i32], align 16
  %9 = alloca i32, align 4
  %10 = alloca i32, align 4
  %11 = alloca i32, align 4
  %12 = alloca i32, align 4
  %13 = alloca i32, align 4
  %14 = alloca i32, align 4
  %15 = alloca i32, align 4
  %16 = alloca i32, align 4
  store i32 %0, ptr %4, align 4, !tbaa !286
  call void @llvm.dbg.declare(metadata ptr %4, metadata !267, metadata !DIExpression()), !dbg !290
  store i32 %1, ptr %5, align 4, !tbaa !286
  call void @llvm.dbg.declare(metadata ptr %5, metadata !268, metadata !DIExpression()), !dbg !291
  store ptr %2, ptr %6, align 8, !tbaa !292
  call void @llvm.dbg.declare(metadata ptr %6, metadata !269, metadata !DIExpression()), !dbg !294
  call void @llvm.lifetime.start.p0(i64 32, ptr %7) #6, !dbg !295
  call void @llvm.dbg.declare(metadata ptr %7, metadata !270, metadata !DIExpression()), !dbg !296
  call void @llvm.memcpy.p0.p0.i64(ptr align 16 %7, ptr align 16 @__const._Z17calc_neighborhoodiiPA80_A120_i.arr_movement_x, i64 32, i1 false), !dbg !296
  call void @llvm.lifetime.start.p0(i64 32, ptr %8) #6, !dbg !297
  call void @llvm.dbg.declare(metadata ptr %8, metadata !274, metadata !DIExpression()), !dbg !298
  call void @llvm.memcpy.p0.p0.i64(ptr align 16 %8, ptr align 16 @__const._Z17calc_neighborhoodiiPA80_A120_i.arr_movement_y, i64 32, i1 false), !dbg !298
  call void @llvm.lifetime.start.p0(i64 4, ptr %9) #6, !dbg !299
  call void @llvm.dbg.declare(metadata ptr %9, metadata !275, metadata !DIExpression()), !dbg !300
  store i32 32, ptr %9, align 4, !dbg !300, !tbaa !286
  call void @llvm.lifetime.start.p0(i64 4, ptr %10) #6, !dbg !301
  call void @llvm.dbg.declare(metadata ptr %10, metadata !276, metadata !DIExpression()), !dbg !302
  call void @llvm.lifetime.start.p0(i64 4, ptr %11) #6, !dbg !301
  call void @llvm.dbg.declare(metadata ptr %11, metadata !277, metadata !DIExpression()), !dbg !303
  call void @llvm.lifetime.start.p0(i64 4, ptr %12) #6, !dbg !304
  call void @llvm.dbg.declare(metadata ptr %12, metadata !278, metadata !DIExpression()), !dbg !305
  store i32 0, ptr %12, align 4, !dbg !305, !tbaa !286
  call void @llvm.lifetime.start.p0(i64 4, ptr %13) #6, !dbg !306
  call void @llvm.dbg.declare(metadata ptr %13, metadata !279, metadata !DIExpression()), !dbg !307
  store i32 0, ptr %13, align 4, !dbg !307, !tbaa !286
  br label %17, !dbg !306

17:                                               ; preds = %65, %3
  %18 = load i32, ptr %13, align 4, !dbg !308, !tbaa !286
  %19 = load i32, ptr %9, align 4, !dbg !309, !tbaa !286
  %20 = icmp slt i32 %18, %19, !dbg !310
  br i1 %20, label %22, label %21, !dbg !311

21:                                               ; preds = %17
  call void @llvm.lifetime.end.p0(i64 4, ptr %13) #6, !dbg !312
  br label %68

22:                                               ; preds = %17
  call void @llvm.lifetime.start.p0(i64 4, ptr %14) #6, !dbg !313
  call void @llvm.dbg.declare(metadata ptr %14, metadata !281, metadata !DIExpression()), !dbg !314
  %23 = load i32, ptr %4, align 4, !dbg !315, !tbaa !286
  %24 = load i32, ptr %13, align 4, !dbg !316, !tbaa !286
  %25 = sext i32 %24 to i64, !dbg !317
  %26 = getelementptr inbounds [8 x i32], ptr %7, i64 0, i64 %25, !dbg !317
  %27 = load i32, ptr %26, align 4, !dbg !317, !tbaa !286
  %28 = add nsw i32 %23, %27, !dbg !318
  store i32 %28, ptr %14, align 4, !dbg !314, !tbaa !286
  call void @llvm.lifetime.start.p0(i64 4, ptr %15) #6, !dbg !319
  call void @llvm.dbg.declare(metadata ptr %15, metadata !284, metadata !DIExpression()), !dbg !320
  %29 = load i32, ptr %5, align 4, !dbg !321, !tbaa !286
  %30 = load i32, ptr %13, align 4, !dbg !322, !tbaa !286
  %31 = sext i32 %30 to i64, !dbg !323
  %32 = getelementptr inbounds [8 x i32], ptr %8, i64 0, i64 %31, !dbg !323
  %33 = load i32, ptr %32, align 4, !dbg !323, !tbaa !286
  %34 = add nsw i32 %29, %33, !dbg !324
  store i32 %34, ptr %15, align 4, !dbg !320, !tbaa !286
  call void @llvm.lifetime.start.p0(i64 4, ptr %16) #6, !dbg !325
  call void @llvm.dbg.declare(metadata ptr %16, metadata !285, metadata !DIExpression()), !dbg !326
  %35 = load i32, ptr %14, align 4, !dbg !327, !tbaa !286
  %36 = icmp sge i32 %35, 0, !dbg !328
  br i1 %36, label %37, label %46, !dbg !329

37:                                               ; preds = %22
  %38 = load i32, ptr %15, align 4, !dbg !330, !tbaa !286
  %39 = icmp sge i32 %38, 0, !dbg !331
  br i1 %39, label %40, label %46, !dbg !332

40:                                               ; preds = %37
  %41 = load i32, ptr %14, align 4, !dbg !333, !tbaa !286
  %42 = icmp slt i32 %41, 80, !dbg !334
  br i1 %42, label %43, label %46, !dbg !335

43:                                               ; preds = %40
  %44 = load i32, ptr %15, align 4, !dbg !336, !tbaa !286
  %45 = icmp slt i32 %44, 120, !dbg !337
  br label %46

46:                                               ; preds = %43, %40, %37, %22
  %47 = phi i1 [ false, %40 ], [ false, %37 ], [ false, %22 ], [ %45, %43 ], !dbg !338
  %48 = zext i1 %47 to i32, !dbg !339
  store i32 %48, ptr %16, align 4, !dbg !326, !tbaa !286
  %49 = load i32, ptr %16, align 4, !dbg !340, !tbaa !286
  %50 = icmp ne i32 %49, 0, !dbg !340
  br i1 %50, label %51, label %64, !dbg !342

51:                                               ; preds = %46
  %52 = load ptr, ptr %6, align 8, !dbg !343, !tbaa !292
  %53 = load i32, ptr %14, align 4, !dbg !344, !tbaa !286
  %54 = sext i32 %53 to i64, !dbg !345
  %55 = getelementptr inbounds [80 x [120 x i32]], ptr %52, i64 0, i64 %54, !dbg !345
  %56 = load i32, ptr %15, align 4, !dbg !346, !tbaa !286
  %57 = sext i32 %56 to i64, !dbg !345
  %58 = getelementptr inbounds [120 x i32], ptr %55, i64 0, i64 %57, !dbg !345
  %59 = load i32, ptr %58, align 4, !dbg !345, !tbaa !286
  %60 = icmp eq i32 %59, 1, !dbg !347
  br i1 %60, label %61, label %64, !dbg !348

61:                                               ; preds = %51
  %62 = load i32, ptr %12, align 4, !dbg !349, !tbaa !286
  %63 = add nsw i32 %62, 1, !dbg !349
  store i32 %63, ptr %12, align 4, !dbg !349, !tbaa !286
  br label %64, !dbg !351

64:                                               ; preds = %61, %51, %46
  call void @llvm.lifetime.end.p0(i64 4, ptr %16) #6, !dbg !352
  call void @llvm.lifetime.end.p0(i64 4, ptr %15) #6, !dbg !352
  call void @llvm.lifetime.end.p0(i64 4, ptr %14) #6, !dbg !352
  br label %65, !dbg !353

65:                                               ; preds = %64
  %66 = load i32, ptr %13, align 4, !dbg !354, !tbaa !286
  %67 = add nsw i32 %66, 1, !dbg !354
  store i32 %67, ptr %13, align 4, !dbg !354, !tbaa !286
  br label %17, !dbg !312, !llvm.loop !355

68:                                               ; preds = %21
  %69 = load i32, ptr %12, align 4, !dbg !358, !tbaa !286
  call void @llvm.lifetime.end.p0(i64 4, ptr %12) #6, !dbg !359
  call void @llvm.lifetime.end.p0(i64 4, ptr %11) #6, !dbg !359
  call void @llvm.lifetime.end.p0(i64 4, ptr %10) #6, !dbg !359
  call void @llvm.lifetime.end.p0(i64 4, ptr %9) #6, !dbg !359
  call void @llvm.lifetime.end.p0(i64 32, ptr %8) #6, !dbg !359
  call void @llvm.lifetime.end.p0(i64 32, ptr %7) #6, !dbg !359
  ret i32 %69, !dbg !360
}

; Function Attrs: nocallback nofree nosync nounwind readnone speculatable willreturn
declare void @llvm.dbg.declare(metadata, metadata, metadata) #1

; Function Attrs: argmemonly nocallback nofree nosync nounwind willreturn
declare void @llvm.lifetime.start.p0(i64 immarg, ptr nocapture) #2

; Function Attrs: argmemonly nocallback nofree nounwind willreturn
declare void @llvm.memcpy.p0.p0.i64(ptr noalias nocapture writeonly, ptr noalias nocapture readonly, i64, i1 immarg) #3

; Function Attrs: argmemonly nocallback nofree nosync nounwind willreturn
declare void @llvm.lifetime.end.p0(i64 immarg, ptr nocapture) #2

; Function Attrs: mustprogress nounwind uwtable
define dso_local void @_Z9fill_nextPA80_A120_iS1_(ptr noundef %0, ptr noundef %1) #0 !dbg !361 {
  %3 = alloca ptr, align 8
  %4 = alloca ptr, align 8
  %5 = alloca i32, align 4
  %6 = alloca i32, align 4
  %7 = alloca i32, align 4
  %8 = alloca i32, align 4
  %9 = alloca i32, align 4
  %10 = alloca i32, align 4
  %11 = alloca i32, align 4
  store ptr %0, ptr %3, align 8, !tbaa !292
  call void @llvm.dbg.declare(metadata ptr %3, metadata !365, metadata !DIExpression()), !dbg !383
  store ptr %1, ptr %4, align 8, !tbaa !292
  call void @llvm.dbg.declare(metadata ptr %4, metadata !366, metadata !DIExpression()), !dbg !384
  call void @llvm.lifetime.start.p0(i64 4, ptr %5) #6, !dbg !385
  call void @llvm.dbg.declare(metadata ptr %5, metadata !367, metadata !DIExpression()), !dbg !386
  call void @llvm.lifetime.start.p0(i64 4, ptr %6) #6, !dbg !387
  call void @llvm.dbg.declare(metadata ptr %6, metadata !368, metadata !DIExpression()), !dbg !388
  store i32 0, ptr %6, align 4, !dbg !388, !tbaa !286
  br label %12, !dbg !387

12:                                               ; preds = %59, %2
  %13 = load i32, ptr %6, align 4, !dbg !389, !tbaa !286
  %14 = icmp slt i32 %13, 80, !dbg !390
  br i1 %14, label %16, label %15, !dbg !391

15:                                               ; preds = %12
  store i32 2, ptr %7, align 4
  call void @llvm.lifetime.end.p0(i64 4, ptr %6) #6, !dbg !392
  br label %62

16:                                               ; preds = %12
  call void @llvm.lifetime.start.p0(i64 4, ptr %8) #6, !dbg !393
  call void @llvm.dbg.declare(metadata ptr %8, metadata !370, metadata !DIExpression()), !dbg !394
  store i32 0, ptr %8, align 4, !dbg !394, !tbaa !286
  br label %17, !dbg !393

17:                                               ; preds = %55, %16
  %18 = load i32, ptr %8, align 4, !dbg !395, !tbaa !286
  %19 = icmp slt i32 %18, 120, !dbg !396
  br i1 %19, label %21, label %20, !dbg !397

20:                                               ; preds = %17
  store i32 5, ptr %7, align 4
  call void @llvm.lifetime.end.p0(i64 4, ptr %8) #6, !dbg !398
  br label %58

21:                                               ; preds = %17
  %22 = load i32, ptr %6, align 4, !dbg !399, !tbaa !286
  %23 = load i32, ptr %8, align 4, !dbg !400, !tbaa !286
  %24 = load ptr, ptr %3, align 8, !dbg !401, !tbaa !292
  %25 = call noundef i32 @_Z17calc_neighborhoodiiPA80_A120_i(i32 noundef %22, i32 noundef %23, ptr noundef %24), !dbg !402
  store i32 %25, ptr %5, align 4, !dbg !403, !tbaa !286
  call void @llvm.lifetime.start.p0(i64 4, ptr %9) #6, !dbg !404
  call void @llvm.dbg.declare(metadata ptr %9, metadata !374, metadata !DIExpression()), !dbg !405
  %26 = load i32, ptr %5, align 4, !dbg !406, !tbaa !286
  %27 = icmp slt i32 %26, 2, !dbg !407
  br i1 %27, label %31, label %28, !dbg !408

28:                                               ; preds = %21
  %29 = load i32, ptr %5, align 4, !dbg !409, !tbaa !286
  %30 = icmp sgt i32 %29, 3, !dbg !410
  br label %31, !dbg !408

31:                                               ; preds = %28, %21
  %32 = phi i1 [ true, %21 ], [ %30, %28 ]
  %33 = zext i1 %32 to i32, !dbg !406
  store i32 %33, ptr %9, align 4, !dbg !405, !tbaa !286
  %34 = load i32, ptr %9, align 4, !dbg !411, !tbaa !286
  %35 = icmp sgt i32 %34, 0, !dbg !413
  br i1 %35, label %36, label %44, !dbg !414

36:                                               ; preds = %31
  %37 = load ptr, ptr %4, align 8, !dbg !415, !tbaa !292
  %38 = load i32, ptr %6, align 4, !dbg !417, !tbaa !286
  %39 = sext i32 %38 to i64, !dbg !418
  %40 = getelementptr inbounds [80 x [120 x i32]], ptr %37, i64 0, i64 %39, !dbg !418
  %41 = load i32, ptr %8, align 4, !dbg !419, !tbaa !286
  %42 = sext i32 %41 to i64, !dbg !418
  %43 = getelementptr inbounds [120 x i32], ptr %40, i64 0, i64 %42, !dbg !418
  store i32 0, ptr %43, align 4, !dbg !420, !tbaa !286
  store i32 7, ptr %7, align 4
  br label %52, !dbg !421

44:                                               ; preds = %31
  %45 = load ptr, ptr %4, align 8, !dbg !422, !tbaa !292
  %46 = load i32, ptr %6, align 4, !dbg !423, !tbaa !286
  %47 = sext i32 %46 to i64, !dbg !424
  %48 = getelementptr inbounds [80 x [120 x i32]], ptr %45, i64 0, i64 %47, !dbg !424
  %49 = load i32, ptr %8, align 4, !dbg !425, !tbaa !286
  %50 = sext i32 %49 to i64, !dbg !424
  %51 = getelementptr inbounds [120 x i32], ptr %48, i64 0, i64 %50, !dbg !424
  store i32 1, ptr %51, align 4, !dbg !426, !tbaa !286
  store i32 0, ptr %7, align 4, !dbg !427
  br label %52, !dbg !427

52:                                               ; preds = %44, %36
  call void @llvm.lifetime.end.p0(i64 4, ptr %9) #6, !dbg !427
  %53 = load i32, ptr %7, align 4
  switch i32 %53, label %96 [
    i32 0, label %54
    i32 7, label %55
  ]

54:                                               ; preds = %52
  br label %55, !dbg !428

55:                                               ; preds = %54, %52
  %56 = load i32, ptr %8, align 4, !dbg !429, !tbaa !286
  %57 = add nsw i32 %56, 1, !dbg !429
  store i32 %57, ptr %8, align 4, !dbg !429, !tbaa !286
  br label %17, !dbg !398, !llvm.loop !430

58:                                               ; preds = %20
  br label %59, !dbg !432

59:                                               ; preds = %58
  %60 = load i32, ptr %6, align 4, !dbg !433, !tbaa !286
  %61 = add nsw i32 %60, 1, !dbg !433
  store i32 %61, ptr %6, align 4, !dbg !433, !tbaa !286
  br label %12, !dbg !392, !llvm.loop !434

62:                                               ; preds = %15
  call void @llvm.lifetime.start.p0(i64 4, ptr %10) #6, !dbg !436
  call void @llvm.dbg.declare(metadata ptr %10, metadata !377, metadata !DIExpression()), !dbg !437
  store i32 0, ptr %10, align 4, !dbg !437, !tbaa !286
  br label %63, !dbg !436

63:                                               ; preds = %92, %62
  %64 = load i32, ptr %10, align 4, !dbg !438, !tbaa !286
  %65 = icmp slt i32 %64, 80, !dbg !439
  br i1 %65, label %67, label %66, !dbg !440

66:                                               ; preds = %63
  store i32 8, ptr %7, align 4
  call void @llvm.lifetime.end.p0(i64 4, ptr %10) #6, !dbg !441
  br label %95

67:                                               ; preds = %63
  call void @llvm.lifetime.start.p0(i64 4, ptr %11) #6, !dbg !442
  call void @llvm.dbg.declare(metadata ptr %11, metadata !379, metadata !DIExpression()), !dbg !443
  store i32 0, ptr %11, align 4, !dbg !443, !tbaa !286
  br label %68, !dbg !442

68:                                               ; preds = %88, %67
  %69 = load i32, ptr %11, align 4, !dbg !444, !tbaa !286
  %70 = icmp slt i32 %69, 120, !dbg !446
  br i1 %70, label %72, label %71, !dbg !447

71:                                               ; preds = %68
  store i32 11, ptr %7, align 4
  call void @llvm.lifetime.end.p0(i64 4, ptr %11) #6, !dbg !448
  br label %91

72:                                               ; preds = %68
  %73 = load ptr, ptr %4, align 8, !dbg !449, !tbaa !292
  %74 = load i32, ptr %10, align 4, !dbg !451, !tbaa !286
  %75 = sext i32 %74 to i64, !dbg !452
  %76 = getelementptr inbounds [80 x [120 x i32]], ptr %73, i64 0, i64 %75, !dbg !452
  %77 = load i32, ptr %11, align 4, !dbg !453, !tbaa !286
  %78 = sext i32 %77 to i64, !dbg !452
  %79 = getelementptr inbounds [120 x i32], ptr %76, i64 0, i64 %78, !dbg !452
  %80 = load i32, ptr %79, align 4, !dbg !452, !tbaa !286
  %81 = load ptr, ptr %3, align 8, !dbg !454, !tbaa !292
  %82 = load i32, ptr %10, align 4, !dbg !455, !tbaa !286
  %83 = sext i32 %82 to i64, !dbg !456
  %84 = getelementptr inbounds [80 x [120 x i32]], ptr %81, i64 0, i64 %83, !dbg !456
  %85 = load i32, ptr %11, align 4, !dbg !457, !tbaa !286
  %86 = sext i32 %85 to i64, !dbg !456
  %87 = getelementptr inbounds [120 x i32], ptr %84, i64 0, i64 %86, !dbg !456
  store i32 %80, ptr %87, align 4, !dbg !458, !tbaa !286
  br label %88, !dbg !459

88:                                               ; preds = %72
  %89 = load i32, ptr %11, align 4, !dbg !460, !tbaa !286
  %90 = add nsw i32 %89, 1, !dbg !460
  store i32 %90, ptr %11, align 4, !dbg !460, !tbaa !286
  br label %68, !dbg !448, !llvm.loop !461

91:                                               ; preds = %71
  br label %92, !dbg !463

92:                                               ; preds = %91
  %93 = load i32, ptr %10, align 4, !dbg !464, !tbaa !286
  %94 = add nsw i32 %93, 1, !dbg !464
  store i32 %94, ptr %10, align 4, !dbg !464, !tbaa !286
  br label %63, !dbg !441, !llvm.loop !465

95:                                               ; preds = %66
  call void @llvm.lifetime.end.p0(i64 4, ptr %5) #6, !dbg !467
  ret void, !dbg !467

96:                                               ; preds = %52
  unreachable
}

; Function Attrs: mustprogress uwtable
define dso_local void @_Z11printSquarePA80_A120_iii(ptr noundef %0, i32 noundef %1, i32 noundef %2) #4 !dbg !468 {
  %4 = alloca ptr, align 8
  %5 = alloca i32, align 4
  %6 = alloca i32, align 4
  %7 = alloca i32, align 4
  %8 = alloca i32, align 4
  %9 = alloca i32, align 4
  %10 = alloca i32, align 4
  %11 = alloca i32, align 4
  %12 = alloca i32, align 4
  %13 = alloca i32, align 4
  store ptr %0, ptr %4, align 8, !tbaa !292
  call void @llvm.dbg.declare(metadata ptr %4, metadata !472, metadata !DIExpression()), !dbg !491
  store i32 %1, ptr %5, align 4, !tbaa !286
  call void @llvm.dbg.declare(metadata ptr %5, metadata !473, metadata !DIExpression()), !dbg !492
  store i32 %2, ptr %6, align 4, !tbaa !286
  call void @llvm.dbg.declare(metadata ptr %6, metadata !474, metadata !DIExpression()), !dbg !493
  call void @llvm.lifetime.start.p0(i64 4, ptr %7) #6, !dbg !494
  call void @llvm.dbg.declare(metadata ptr %7, metadata !475, metadata !DIExpression()), !dbg !495
  store i32 0, ptr %7, align 4, !dbg !495, !tbaa !286
  call void @llvm.lifetime.start.p0(i64 4, ptr %8) #6, !dbg !496
  call void @llvm.dbg.declare(metadata ptr %8, metadata !476, metadata !DIExpression()), !dbg !497
  store i32 10040012, ptr %8, align 4, !dbg !497, !tbaa !286
  %14 = load ptr, ptr %4, align 8, !dbg !498, !tbaa !292
  %15 = load i32, ptr %5, align 4, !dbg !499, !tbaa !286
  %16 = sext i32 %15 to i64, !dbg !500
  %17 = getelementptr inbounds [80 x [120 x i32]], ptr %14, i64 0, i64 %16, !dbg !500
  %18 = load i32, ptr %6, align 4, !dbg !501, !tbaa !286
  %19 = sext i32 %18 to i64, !dbg !500
  %20 = getelementptr inbounds [120 x i32], ptr %17, i64 0, i64 %19, !dbg !500
  %21 = load i32, ptr %20, align 4, !dbg !500, !tbaa !286
  %22 = icmp eq i32 %21, 1, !dbg !502
  br i1 %22, label %23, label %51, !dbg !503

23:                                               ; preds = %3
  call void @llvm.lifetime.start.p0(i64 4, ptr %9) #6, !dbg !504
  call void @llvm.dbg.declare(metadata ptr %9, metadata !477, metadata !DIExpression()), !dbg !505
  store i32 0, ptr %9, align 4, !dbg !505, !tbaa !286
  br label %24, !dbg !504

24:                                               ; preds = %47, %23
  %25 = load i32, ptr %9, align 4, !dbg !506, !tbaa !286
  %26 = icmp slt i32 %25, 10, !dbg !507
  br i1 %26, label %28, label %27, !dbg !508

27:                                               ; preds = %24
  store i32 2, ptr %10, align 4
  call void @llvm.lifetime.end.p0(i64 4, ptr %9) #6, !dbg !509
  br label %50

28:                                               ; preds = %24
  call void @llvm.lifetime.start.p0(i64 4, ptr %11) #6, !dbg !510
  call void @llvm.dbg.declare(metadata ptr %11, metadata !481, metadata !DIExpression()), !dbg !511
  store i32 0, ptr %11, align 4, !dbg !511, !tbaa !286
  br label %29, !dbg !510

29:                                               ; preds = %43, %28
  %30 = load i32, ptr %11, align 4, !dbg !512, !tbaa !286
  %31 = icmp slt i32 %30, 10, !dbg !514
  br i1 %31, label %33, label %32, !dbg !515

32:                                               ; preds = %29
  store i32 5, ptr %10, align 4
  call void @llvm.lifetime.end.p0(i64 4, ptr %11) #6, !dbg !516
  br label %46

33:                                               ; preds = %29
  %34 = load i32, ptr %5, align 4, !dbg !517, !tbaa !286
  %35 = mul nsw i32 %34, 10, !dbg !519
  %36 = load i32, ptr %9, align 4, !dbg !520, !tbaa !286
  %37 = add nsw i32 %35, %36, !dbg !521
  %38 = load i32, ptr %6, align 4, !dbg !522, !tbaa !286
  %39 = mul nsw i32 %38, 10, !dbg !523
  %40 = load i32, ptr %11, align 4, !dbg !524, !tbaa !286
  %41 = add nsw i32 %39, %40, !dbg !525
  %42 = load i32, ptr %8, align 4, !dbg !526, !tbaa !286
  call void @_Z11simPutPixeliii(i32 noundef %37, i32 noundef %41, i32 noundef %42), !dbg !527
  br label %43, !dbg !528

43:                                               ; preds = %33
  %44 = load i32, ptr %11, align 4, !dbg !529, !tbaa !286
  %45 = add nsw i32 %44, 1, !dbg !529
  store i32 %45, ptr %11, align 4, !dbg !529, !tbaa !286
  br label %29, !dbg !516, !llvm.loop !530

46:                                               ; preds = %32
  br label %47, !dbg !532

47:                                               ; preds = %46
  %48 = load i32, ptr %9, align 4, !dbg !533, !tbaa !286
  %49 = add nsw i32 %48, 1, !dbg !533
  store i32 %49, ptr %9, align 4, !dbg !533, !tbaa !286
  br label %24, !dbg !509, !llvm.loop !534

50:                                               ; preds = %27
  store i32 1, ptr %10, align 4
  br label %79, !dbg !536

51:                                               ; preds = %3
  call void @llvm.lifetime.start.p0(i64 4, ptr %12) #6, !dbg !537
  call void @llvm.dbg.declare(metadata ptr %12, metadata !485, metadata !DIExpression()), !dbg !538
  store i32 0, ptr %12, align 4, !dbg !538, !tbaa !286
  br label %52, !dbg !537

52:                                               ; preds = %75, %51
  %53 = load i32, ptr %12, align 4, !dbg !539, !tbaa !286
  %54 = icmp slt i32 %53, 10, !dbg !540
  br i1 %54, label %56, label %55, !dbg !541

55:                                               ; preds = %52
  store i32 8, ptr %10, align 4
  call void @llvm.lifetime.end.p0(i64 4, ptr %12) #6, !dbg !542
  br label %78

56:                                               ; preds = %52
  call void @llvm.lifetime.start.p0(i64 4, ptr %13) #6, !dbg !543
  call void @llvm.dbg.declare(metadata ptr %13, metadata !487, metadata !DIExpression()), !dbg !544
  store i32 0, ptr %13, align 4, !dbg !544, !tbaa !286
  br label %57, !dbg !543

57:                                               ; preds = %71, %56
  %58 = load i32, ptr %13, align 4, !dbg !545, !tbaa !286
  %59 = icmp slt i32 %58, 10, !dbg !547
  br i1 %59, label %61, label %60, !dbg !548

60:                                               ; preds = %57
  store i32 11, ptr %10, align 4
  call void @llvm.lifetime.end.p0(i64 4, ptr %13) #6, !dbg !549
  br label %74

61:                                               ; preds = %57
  %62 = load i32, ptr %5, align 4, !dbg !550, !tbaa !286
  %63 = mul nsw i32 %62, 10, !dbg !552
  %64 = load i32, ptr %12, align 4, !dbg !553, !tbaa !286
  %65 = add nsw i32 %63, %64, !dbg !554
  %66 = load i32, ptr %6, align 4, !dbg !555, !tbaa !286
  %67 = mul nsw i32 %66, 10, !dbg !556
  %68 = load i32, ptr %13, align 4, !dbg !557, !tbaa !286
  %69 = add nsw i32 %67, %68, !dbg !558
  %70 = load i32, ptr %7, align 4, !dbg !559, !tbaa !286
  call void @_Z11simPutPixeliii(i32 noundef %65, i32 noundef %69, i32 noundef %70), !dbg !560
  br label %71, !dbg !561

71:                                               ; preds = %61
  %72 = load i32, ptr %13, align 4, !dbg !562, !tbaa !286
  %73 = add nsw i32 %72, 1, !dbg !562
  store i32 %73, ptr %13, align 4, !dbg !562, !tbaa !286
  br label %57, !dbg !549, !llvm.loop !563

74:                                               ; preds = %60
  br label %75, !dbg !565

75:                                               ; preds = %74
  %76 = load i32, ptr %12, align 4, !dbg !566, !tbaa !286
  %77 = add nsw i32 %76, 1, !dbg !566
  store i32 %77, ptr %12, align 4, !dbg !566, !tbaa !286
  br label %52, !dbg !542, !llvm.loop !567

78:                                               ; preds = %55
  store i32 0, ptr %10, align 4, !dbg !569
  br label %79, !dbg !569

79:                                               ; preds = %78, %50
  call void @llvm.lifetime.end.p0(i64 4, ptr %8) #6, !dbg !569
  call void @llvm.lifetime.end.p0(i64 4, ptr %7) #6, !dbg !569
  %80 = load i32, ptr %10, align 4
  switch i32 %80, label %82 [
    i32 0, label %81
    i32 1, label %81
  ]

81:                                               ; preds = %79, %79
  ret void, !dbg !569

82:                                               ; preds = %79
  unreachable
}

declare !dbg !570 void @_Z11simPutPixeliii(i32 noundef, i32 noundef, i32 noundef) #5

; Function Attrs: mustprogress uwtable
define dso_local void @_Z3appv() #4 !dbg !574 {
  %1 = alloca [80 x [120 x i32]], align 16
  %2 = alloca [80 x [120 x i32]], align 16
  %3 = alloca i32, align 4
  %4 = alloca i32, align 4
  %5 = alloca i32, align 4
  %6 = alloca i32, align 4
  %7 = alloca i32, align 4
  %8 = alloca i32, align 4
  %9 = alloca i32, align 4
  %10 = alloca i32, align 4
  call void @llvm.lifetime.start.p0(i64 38400, ptr %1) #6, !dbg !598
  call void @llvm.dbg.declare(metadata ptr %1, metadata !576, metadata !DIExpression()), !dbg !599
  call void @llvm.lifetime.start.p0(i64 38400, ptr %2) #6, !dbg !600
  call void @llvm.dbg.declare(metadata ptr %2, metadata !577, metadata !DIExpression()), !dbg !601
  call void @llvm.lifetime.start.p0(i64 4, ptr %3) #6, !dbg !602
  call void @llvm.dbg.declare(metadata ptr %3, metadata !578, metadata !DIExpression()), !dbg !603
  store i32 100, ptr %3, align 4, !dbg !603, !tbaa !286
  call void @llvm.lifetime.start.p0(i64 4, ptr %4) #6, !dbg !604
  call void @llvm.dbg.declare(metadata ptr %4, metadata !579, metadata !DIExpression()), !dbg !605
  store i32 0, ptr %4, align 4, !dbg !605, !tbaa !286
  br label %11, !dbg !604

11:                                               ; preds = %47, %0
  %12 = load i32, ptr %4, align 4, !dbg !606, !tbaa !286
  %13 = icmp slt i32 %12, 80, !dbg !607
  br i1 %13, label %15, label %14, !dbg !608

14:                                               ; preds = %11
  store i32 2, ptr %5, align 4
  call void @llvm.lifetime.end.p0(i64 4, ptr %4) #6, !dbg !609
  br label %50

15:                                               ; preds = %11
  call void @llvm.lifetime.start.p0(i64 4, ptr %6) #6, !dbg !610
  call void @llvm.dbg.declare(metadata ptr %6, metadata !581, metadata !DIExpression()), !dbg !611
  store i32 0, ptr %6, align 4, !dbg !611, !tbaa !286
  br label %16, !dbg !610

16:                                               ; preds = %43, %15
  %17 = load i32, ptr %6, align 4, !dbg !612, !tbaa !286
  %18 = icmp slt i32 %17, 120, !dbg !613
  br i1 %18, label %20, label %19, !dbg !614

19:                                               ; preds = %16
  store i32 5, ptr %5, align 4
  call void @llvm.lifetime.end.p0(i64 4, ptr %6) #6, !dbg !615
  br label %46

20:                                               ; preds = %16
  call void @llvm.lifetime.start.p0(i64 4, ptr %7) #6, !dbg !616
  call void @llvm.dbg.declare(metadata ptr %7, metadata !585, metadata !DIExpression()), !dbg !617
  %21 = call noundef i32 @_Z7simRandv(), !dbg !618
  %22 = load i32, ptr %3, align 4, !dbg !619, !tbaa !286
  %23 = srem i32 %21, %22, !dbg !620
  store i32 %23, ptr %7, align 4, !dbg !617, !tbaa !286
  %24 = load i32, ptr %7, align 4, !dbg !621, !tbaa !286
  %25 = icmp slt i32 %24, 1, !dbg !623
  br i1 %25, label %26, label %33, !dbg !624

26:                                               ; preds = %20
  %27 = load i32, ptr %4, align 4, !dbg !625, !tbaa !286
  %28 = sext i32 %27 to i64, !dbg !627
  %29 = getelementptr inbounds [80 x [120 x i32]], ptr %1, i64 0, i64 %28, !dbg !627
  %30 = load i32, ptr %6, align 4, !dbg !628, !tbaa !286
  %31 = sext i32 %30 to i64, !dbg !627
  %32 = getelementptr inbounds [120 x i32], ptr %29, i64 0, i64 %31, !dbg !627
  store i32 1, ptr %32, align 4, !dbg !629, !tbaa !286
  store i32 7, ptr %5, align 4
  br label %40, !dbg !630

33:                                               ; preds = %20
  %34 = load i32, ptr %4, align 4, !dbg !631, !tbaa !286
  %35 = sext i32 %34 to i64, !dbg !632
  %36 = getelementptr inbounds [80 x [120 x i32]], ptr %1, i64 0, i64 %35, !dbg !632
  %37 = load i32, ptr %6, align 4, !dbg !633, !tbaa !286
  %38 = sext i32 %37 to i64, !dbg !632
  %39 = getelementptr inbounds [120 x i32], ptr %36, i64 0, i64 %38, !dbg !632
  store i32 0, ptr %39, align 4, !dbg !634, !tbaa !286
  store i32 0, ptr %5, align 4, !dbg !635
  br label %40, !dbg !635

40:                                               ; preds = %33, %26
  call void @llvm.lifetime.end.p0(i64 4, ptr %7) #6, !dbg !635
  %41 = load i32, ptr %5, align 4
  switch i32 %41, label %80 [
    i32 0, label %42
    i32 7, label %43
  ]

42:                                               ; preds = %40
  br label %43, !dbg !636

43:                                               ; preds = %42, %40
  %44 = load i32, ptr %6, align 4, !dbg !637, !tbaa !286
  %45 = add nsw i32 %44, 1, !dbg !637
  store i32 %45, ptr %6, align 4, !dbg !637, !tbaa !286
  br label %16, !dbg !615, !llvm.loop !638

46:                                               ; preds = %19
  br label %47, !dbg !640

47:                                               ; preds = %46
  %48 = load i32, ptr %4, align 4, !dbg !641, !tbaa !286
  %49 = add nsw i32 %48, 1, !dbg !641
  store i32 %49, ptr %4, align 4, !dbg !641, !tbaa !286
  br label %11, !dbg !609, !llvm.loop !642

50:                                               ; preds = %14
  call void @llvm.lifetime.start.p0(i64 4, ptr %8) #6, !dbg !644
  call void @llvm.dbg.declare(metadata ptr %8, metadata !588, metadata !DIExpression()), !dbg !645
  store i32 0, ptr %8, align 4, !dbg !645, !tbaa !286
  br label %51, !dbg !644

51:                                               ; preds = %76, %50
  %52 = load i32, ptr %8, align 4, !dbg !646, !tbaa !286
  %53 = icmp slt i32 %52, 1000, !dbg !647
  br i1 %53, label %55, label %54, !dbg !648

54:                                               ; preds = %51
  store i32 8, ptr %5, align 4
  call void @llvm.lifetime.end.p0(i64 4, ptr %8) #6, !dbg !649
  br label %79

55:                                               ; preds = %51
  call void @llvm.lifetime.start.p0(i64 4, ptr %9) #6, !dbg !650
  call void @llvm.dbg.declare(metadata ptr %9, metadata !590, metadata !DIExpression()), !dbg !651
  store i32 0, ptr %9, align 4, !dbg !651, !tbaa !286
  br label %56, !dbg !650

56:                                               ; preds = %72, %55
  %57 = load i32, ptr %9, align 4, !dbg !652, !tbaa !286
  %58 = icmp slt i32 %57, 120, !dbg !653
  br i1 %58, label %60, label %59, !dbg !654

59:                                               ; preds = %56
  store i32 11, ptr %5, align 4
  call void @llvm.lifetime.end.p0(i64 4, ptr %9) #6, !dbg !655
  br label %75

60:                                               ; preds = %56
  call void @llvm.lifetime.start.p0(i64 4, ptr %10) #6, !dbg !656
  call void @llvm.dbg.declare(metadata ptr %10, metadata !594, metadata !DIExpression()), !dbg !657
  store i32 0, ptr %10, align 4, !dbg !657, !tbaa !286
  br label %61, !dbg !656

61:                                               ; preds = %68, %60
  %62 = load i32, ptr %10, align 4, !dbg !658, !tbaa !286
  %63 = icmp slt i32 %62, 80, !dbg !660
  br i1 %63, label %65, label %64, !dbg !661

64:                                               ; preds = %61
  store i32 14, ptr %5, align 4
  call void @llvm.lifetime.end.p0(i64 4, ptr %10) #6, !dbg !662
  br label %71

65:                                               ; preds = %61
  %66 = load i32, ptr %10, align 4, !dbg !663, !tbaa !286
  %67 = load i32, ptr %9, align 4, !dbg !665, !tbaa !286
  call void @_Z11printSquarePA80_A120_iii(ptr noundef %1, i32 noundef %66, i32 noundef %67), !dbg !666
  br label %68, !dbg !667

68:                                               ; preds = %65
  %69 = load i32, ptr %10, align 4, !dbg !668, !tbaa !286
  %70 = add nsw i32 %69, 1, !dbg !668
  store i32 %70, ptr %10, align 4, !dbg !668, !tbaa !286
  br label %61, !dbg !662, !llvm.loop !669

71:                                               ; preds = %64
  br label %72, !dbg !671

72:                                               ; preds = %71
  %73 = load i32, ptr %9, align 4, !dbg !672, !tbaa !286
  %74 = add nsw i32 %73, 1, !dbg !672
  store i32 %74, ptr %9, align 4, !dbg !672, !tbaa !286
  br label %56, !dbg !655, !llvm.loop !673

75:                                               ; preds = %59
  call void @_Z9fill_nextPA80_A120_iS1_(ptr noundef %1, ptr noundef %2), !dbg !675
  call void @_Z8simFlushv(), !dbg !676
  br label %76, !dbg !677

76:                                               ; preds = %75
  %77 = load i32, ptr %8, align 4, !dbg !678, !tbaa !286
  %78 = add nsw i32 %77, 1, !dbg !678
  store i32 %78, ptr %8, align 4, !dbg !678, !tbaa !286
  br label %51, !dbg !649, !llvm.loop !679

79:                                               ; preds = %54
  call void @llvm.lifetime.end.p0(i64 4, ptr %3) #6, !dbg !681
  call void @llvm.lifetime.end.p0(i64 38400, ptr %2) #6, !dbg !681
  call void @llvm.lifetime.end.p0(i64 38400, ptr %1) #6, !dbg !681
  ret void, !dbg !681

80:                                               ; preds = %40
  unreachable
}

declare !dbg !682 noundef i32 @_Z7simRandv() #5

declare !dbg !683 void @_Z8simFlushv() #5

attributes #0 = { mustprogress nounwind uwtable "frame-pointer"="none" "min-legal-vector-width"="0" "no-trapping-math"="true" "stack-protector-buffer-size"="8" "target-cpu"="x86-64" "target-features"="+cx8,+fxsr,+mmx,+sse,+sse2,+x87" "tune-cpu"="generic" }
attributes #1 = { nocallback nofree nosync nounwind readnone speculatable willreturn }
attributes #2 = { argmemonly nocallback nofree nosync nounwind willreturn }
attributes #3 = { argmemonly nocallback nofree nounwind willreturn }
attributes #4 = { mustprogress uwtable "frame-pointer"="none" "min-legal-vector-width"="0" "no-trapping-math"="true" "stack-protector-buffer-size"="8" "target-cpu"="x86-64" "target-features"="+cx8,+fxsr,+mmx,+sse,+sse2,+x87" "tune-cpu"="generic" }
attributes #5 = { "frame-pointer"="none" "no-trapping-math"="true" "stack-protector-buffer-size"="8" "target-cpu"="x86-64" "target-features"="+cx8,+fxsr,+mmx,+sse,+sse2,+x87" "tune-cpu"="generic" }
attributes #6 = { nounwind }

!llvm.dbg.cu = !{!0}
!llvm.module.flags = !{!250, !251, !252, !253, !254, !255}
!llvm.ident = !{!256}

!0 = distinct !DICompileUnit(language: DW_LANG_C_plus_plus_14, file: !1, producer: "clang version 15.0.0 (https://github.com/llvm/llvm-project.git 4ba6a9c9f65bbc8bd06e3652cb20fd4dfc846137)", isOptimized: true, runtimeVersion: 0, emissionKind: FullDebug, imports: !2, splitDebugInlining: false, nameTableKind: None)
!1 = !DIFile(filename: "<source>", directory: "/app")
!2 = !{!3, !11, !15, !22, !26, !31, !33, !42, !46, !50, !65, !69, !73, !77, !81, !86, !90, !94, !98, !102, !110, !114, !118, !120, !124, !128, !133, !139, !143, !147, !149, !157, !161, !169, !171, !175, !179, !183, !187, !192, !197, !202, !203, !204, !205, !207, !208, !209, !210, !211, !212, !213, !215, !216, !217, !218, !219, !220, !221, !226, !227, !228, !229, !230, !231, !232, !233, !234, !235, !236, !237, !238, !239, !240, !241, !242, !243, !244, !245, !246, !247, !248, !249}
!3 = !DIImportedEntity(tag: DW_TAG_imported_declaration, scope: !4, entity: !5, file: !10, line: 52)
!4 = !DINamespace(name: "std", scope: null)
!5 = !DISubprogram(name: "abs", scope: !6, file: !6, line: 840, type: !7, flags: DIFlagPrototyped, spFlags: DISPFlagOptimized)
!6 = !DIFile(filename: "/usr/include/stdlib.h", directory: "")
!7 = !DISubroutineType(types: !8)
!8 = !{!9, !9}
!9 = !DIBasicType(name: "int", size: 32, encoding: DW_ATE_signed)
!10 = !DIFile(filename: "/opt/compiler-explorer/gcc-12.2.0/lib/gcc/x86_64-linux-gnu/12.2.0/../../../../include/c++/12.2.0/bits/std_abs.h", directory: "")
!11 = !DIImportedEntity(tag: DW_TAG_imported_declaration, scope: !4, entity: !12, file: !14, line: 127)
!12 = !DIDerivedType(tag: DW_TAG_typedef, name: "div_t", file: !6, line: 62, baseType: !13)
!13 = !DICompositeType(tag: DW_TAG_structure_type, file: !6, line: 58, size: 64, flags: DIFlagFwdDecl, identifier: "_ZTS5div_t")
!14 = !DIFile(filename: "/opt/compiler-explorer/gcc-12.2.0/lib/gcc/x86_64-linux-gnu/12.2.0/../../../../include/c++/12.2.0/cstdlib", directory: "")
!15 = !DIImportedEntity(tag: DW_TAG_imported_declaration, scope: !4, entity: !16, file: !14, line: 128)
!16 = !DIDerivedType(tag: DW_TAG_typedef, name: "ldiv_t", file: !6, line: 70, baseType: !17)
!17 = distinct !DICompositeType(tag: DW_TAG_structure_type, file: !6, line: 66, size: 128, flags: DIFlagTypePassByValue, elements: !18, identifier: "_ZTS6ldiv_t")
!18 = !{!19, !21}
!19 = !DIDerivedType(tag: DW_TAG_member, name: "quot", scope: !17, file: !6, line: 68, baseType: !20, size: 64)
!20 = !DIBasicType(name: "long", size: 64, encoding: DW_ATE_signed)
!21 = !DIDerivedType(tag: DW_TAG_member, name: "rem", scope: !17, file: !6, line: 69, baseType: !20, size: 64, offset: 64)
!22 = !DIImportedEntity(tag: DW_TAG_imported_declaration, scope: !4, entity: !23, file: !14, line: 130)
!23 = !DISubprogram(name: "abort", scope: !6, file: !6, line: 591, type: !24, flags: DIFlagPrototyped | DIFlagNoReturn, spFlags: DISPFlagOptimized)
!24 = !DISubroutineType(types: !25)
!25 = !{null}
!26 = !DIImportedEntity(tag: DW_TAG_imported_declaration, scope: !4, entity: !27, file: !14, line: 134)
!27 = !DISubprogram(name: "atexit", scope: !6, file: !6, line: 595, type: !28, flags: DIFlagPrototyped, spFlags: DISPFlagOptimized)
!28 = !DISubroutineType(types: !29)
!29 = !{!9, !30}
!30 = !DIDerivedType(tag: DW_TAG_pointer_type, baseType: !24, size: 64)
!31 = !DIImportedEntity(tag: DW_TAG_imported_declaration, scope: !4, entity: !32, file: !14, line: 137)
!32 = !DISubprogram(name: "at_quick_exit", scope: !6, file: !6, line: 600, type: !28, flags: DIFlagPrototyped, spFlags: DISPFlagOptimized)
!33 = !DIImportedEntity(tag: DW_TAG_imported_declaration, scope: !4, entity: !34, file: !14, line: 140)
!34 = !DISubprogram(name: "atof", scope: !35, file: !35, line: 25, type: !36, flags: DIFlagPrototyped, spFlags: DISPFlagOptimized)
!35 = !DIFile(filename: "/usr/include/x86_64-linux-gnu/bits/stdlib-float.h", directory: "")
!36 = !DISubroutineType(types: !37)
!37 = !{!38, !39}
!38 = !DIBasicType(name: "double", size: 64, encoding: DW_ATE_float)
!39 = !DIDerivedType(tag: DW_TAG_pointer_type, baseType: !40, size: 64)
!40 = !DIDerivedType(tag: DW_TAG_const_type, baseType: !41)
!41 = !DIBasicType(name: "char", size: 8, encoding: DW_ATE_signed_char)
!42 = !DIImportedEntity(tag: DW_TAG_imported_declaration, scope: !4, entity: !43, file: !14, line: 141)
!43 = !DISubprogram(name: "atoi", scope: !6, file: !6, line: 361, type: !44, flags: DIFlagPrototyped, spFlags: DISPFlagOptimized)
!44 = !DISubroutineType(types: !45)
!45 = !{!9, !39}
!46 = !DIImportedEntity(tag: DW_TAG_imported_declaration, scope: !4, entity: !47, file: !14, line: 142)
!47 = !DISubprogram(name: "atol", scope: !6, file: !6, line: 366, type: !48, flags: DIFlagPrototyped, spFlags: DISPFlagOptimized)
!48 = !DISubroutineType(types: !49)
!49 = !{!20, !39}
!50 = !DIImportedEntity(tag: DW_TAG_imported_declaration, scope: !4, entity: !51, file: !14, line: 143)
!51 = !DISubprogram(name: "bsearch", scope: !52, file: !52, line: 20, type: !53, flags: DIFlagPrototyped, spFlags: DISPFlagOptimized)
!52 = !DIFile(filename: "/usr/include/x86_64-linux-gnu/bits/stdlib-bsearch.h", directory: "")
!53 = !DISubroutineType(types: !54)
!54 = !{!55, !56, !56, !58, !58, !61}
!55 = !DIDerivedType(tag: DW_TAG_pointer_type, baseType: null, size: 64)
!56 = !DIDerivedType(tag: DW_TAG_pointer_type, baseType: !57, size: 64)
!57 = !DIDerivedType(tag: DW_TAG_const_type, baseType: null)
!58 = !DIDerivedType(tag: DW_TAG_typedef, name: "size_t", file: !59, line: 46, baseType: !60)
!59 = !DIFile(filename: "/opt/compiler-explorer/clang-15.0.0/lib/clang/15.0.0/include/stddef.h", directory: "")
!60 = !DIBasicType(name: "unsigned long", size: 64, encoding: DW_ATE_unsigned)
!61 = !DIDerivedType(tag: DW_TAG_typedef, name: "__compar_fn_t", file: !6, line: 808, baseType: !62)
!62 = !DIDerivedType(tag: DW_TAG_pointer_type, baseType: !63, size: 64)
!63 = !DISubroutineType(types: !64)
!64 = !{!9, !56, !56}
!65 = !DIImportedEntity(tag: DW_TAG_imported_declaration, scope: !4, entity: !66, file: !14, line: 144)
!66 = !DISubprogram(name: "calloc", scope: !6, file: !6, line: 542, type: !67, flags: DIFlagPrototyped, spFlags: DISPFlagOptimized)
!67 = !DISubroutineType(types: !68)
!68 = !{!55, !58, !58}
!69 = !DIImportedEntity(tag: DW_TAG_imported_declaration, scope: !4, entity: !70, file: !14, line: 145)
!70 = !DISubprogram(name: "div", scope: !6, file: !6, line: 852, type: !71, flags: DIFlagPrototyped, spFlags: DISPFlagOptimized)
!71 = !DISubroutineType(types: !72)
!72 = !{!12, !9, !9}
!73 = !DIImportedEntity(tag: DW_TAG_imported_declaration, scope: !4, entity: !74, file: !14, line: 146)
!74 = !DISubprogram(name: "exit", scope: !6, file: !6, line: 617, type: !75, flags: DIFlagPrototyped | DIFlagNoReturn, spFlags: DISPFlagOptimized)
!75 = !DISubroutineType(types: !76)
!76 = !{null, !9}
!77 = !DIImportedEntity(tag: DW_TAG_imported_declaration, scope: !4, entity: !78, file: !14, line: 147)
!78 = !DISubprogram(name: "free", scope: !6, file: !6, line: 565, type: !79, flags: DIFlagPrototyped, spFlags: DISPFlagOptimized)
!79 = !DISubroutineType(types: !80)
!80 = !{null, !55}
!81 = !DIImportedEntity(tag: DW_TAG_imported_declaration, scope: !4, entity: !82, file: !14, line: 148)
!82 = !DISubprogram(name: "getenv", scope: !6, file: !6, line: 634, type: !83, flags: DIFlagPrototyped, spFlags: DISPFlagOptimized)
!83 = !DISubroutineType(types: !84)
!84 = !{!85, !39}
!85 = !DIDerivedType(tag: DW_TAG_pointer_type, baseType: !41, size: 64)
!86 = !DIImportedEntity(tag: DW_TAG_imported_declaration, scope: !4, entity: !87, file: !14, line: 149)
!87 = !DISubprogram(name: "labs", scope: !6, file: !6, line: 841, type: !88, flags: DIFlagPrototyped, spFlags: DISPFlagOptimized)
!88 = !DISubroutineType(types: !89)
!89 = !{!20, !20}
!90 = !DIImportedEntity(tag: DW_TAG_imported_declaration, scope: !4, entity: !91, file: !14, line: 150)
!91 = !DISubprogram(name: "ldiv", scope: !6, file: !6, line: 854, type: !92, flags: DIFlagPrototyped, spFlags: DISPFlagOptimized)
!92 = !DISubroutineType(types: !93)
!93 = !{!16, !20, !20}
!94 = !DIImportedEntity(tag: DW_TAG_imported_declaration, scope: !4, entity: !95, file: !14, line: 151)
!95 = !DISubprogram(name: "malloc", scope: !6, file: !6, line: 539, type: !96, flags: DIFlagPrototyped, spFlags: DISPFlagOptimized)
!96 = !DISubroutineType(types: !97)
!97 = !{!55, !58}
!98 = !DIImportedEntity(tag: DW_TAG_imported_declaration, scope: !4, entity: !99, file: !14, line: 153)
!99 = !DISubprogram(name: "mblen", scope: !6, file: !6, line: 922, type: !100, flags: DIFlagPrototyped, spFlags: DISPFlagOptimized)
!100 = !DISubroutineType(types: !101)
!101 = !{!9, !39, !58}
!102 = !DIImportedEntity(tag: DW_TAG_imported_declaration, scope: !4, entity: !103, file: !14, line: 154)
!103 = !DISubprogram(name: "mbstowcs", scope: !6, file: !6, line: 933, type: !104, flags: DIFlagPrototyped, spFlags: DISPFlagOptimized)
!104 = !DISubroutineType(types: !105)
!105 = !{!58, !106, !109, !58}
!106 = !DIDerivedType(tag: DW_TAG_restrict_type, baseType: !107)
!107 = !DIDerivedType(tag: DW_TAG_pointer_type, baseType: !108, size: 64)
!108 = !DIBasicType(name: "wchar_t", size: 32, encoding: DW_ATE_signed)
!109 = !DIDerivedType(tag: DW_TAG_restrict_type, baseType: !39)
!110 = !DIImportedEntity(tag: DW_TAG_imported_declaration, scope: !4, entity: !111, file: !14, line: 155)
!111 = !DISubprogram(name: "mbtowc", scope: !6, file: !6, line: 925, type: !112, flags: DIFlagPrototyped, spFlags: DISPFlagOptimized)
!112 = !DISubroutineType(types: !113)
!113 = !{!9, !106, !109, !58}
!114 = !DIImportedEntity(tag: DW_TAG_imported_declaration, scope: !4, entity: !115, file: !14, line: 157)
!115 = !DISubprogram(name: "qsort", scope: !6, file: !6, line: 830, type: !116, flags: DIFlagPrototyped, spFlags: DISPFlagOptimized)
!116 = !DISubroutineType(types: !117)
!117 = !{null, !55, !58, !58, !61}
!118 = !DIImportedEntity(tag: DW_TAG_imported_declaration, scope: !4, entity: !119, file: !14, line: 160)
!119 = !DISubprogram(name: "quick_exit", scope: !6, file: !6, line: 623, type: !75, flags: DIFlagPrototyped | DIFlagNoReturn, spFlags: DISPFlagOptimized)
!120 = !DIImportedEntity(tag: DW_TAG_imported_declaration, scope: !4, entity: !121, file: !14, line: 163)
!121 = !DISubprogram(name: "rand", scope: !6, file: !6, line: 453, type: !122, flags: DIFlagPrototyped, spFlags: DISPFlagOptimized)
!122 = !DISubroutineType(types: !123)
!123 = !{!9}
!124 = !DIImportedEntity(tag: DW_TAG_imported_declaration, scope: !4, entity: !125, file: !14, line: 164)
!125 = !DISubprogram(name: "realloc", scope: !6, file: !6, line: 550, type: !126, flags: DIFlagPrototyped, spFlags: DISPFlagOptimized)
!126 = !DISubroutineType(types: !127)
!127 = !{!55, !55, !58}
!128 = !DIImportedEntity(tag: DW_TAG_imported_declaration, scope: !4, entity: !129, file: !14, line: 165)
!129 = !DISubprogram(name: "srand", scope: !6, file: !6, line: 455, type: !130, flags: DIFlagPrototyped, spFlags: DISPFlagOptimized)
!130 = !DISubroutineType(types: !131)
!131 = !{null, !132}
!132 = !DIBasicType(name: "unsigned int", size: 32, encoding: DW_ATE_unsigned)
!133 = !DIImportedEntity(tag: DW_TAG_imported_declaration, scope: !4, entity: !134, file: !14, line: 166)
!134 = !DISubprogram(name: "strtod", scope: !6, file: !6, line: 117, type: !135, flags: DIFlagPrototyped, spFlags: DISPFlagOptimized)
!135 = !DISubroutineType(types: !136)
!136 = !{!38, !109, !137}
!137 = !DIDerivedType(tag: DW_TAG_restrict_type, baseType: !138)
!138 = !DIDerivedType(tag: DW_TAG_pointer_type, baseType: !85, size: 64)
!139 = !DIImportedEntity(tag: DW_TAG_imported_declaration, scope: !4, entity: !140, file: !14, line: 167)
!140 = !DISubprogram(name: "strtol", scope: !6, file: !6, line: 176, type: !141, flags: DIFlagPrototyped, spFlags: DISPFlagOptimized)
!141 = !DISubroutineType(types: !142)
!142 = !{!20, !109, !137, !9}
!143 = !DIImportedEntity(tag: DW_TAG_imported_declaration, scope: !4, entity: !144, file: !14, line: 168)
!144 = !DISubprogram(name: "strtoul", scope: !6, file: !6, line: 180, type: !145, flags: DIFlagPrototyped, spFlags: DISPFlagOptimized)
!145 = !DISubroutineType(types: !146)
!146 = !{!60, !109, !137, !9}
!147 = !DIImportedEntity(tag: DW_TAG_imported_declaration, scope: !4, entity: !148, file: !14, line: 169)
!148 = !DISubprogram(name: "system", scope: !6, file: !6, line: 784, type: !44, flags: DIFlagPrototyped, spFlags: DISPFlagOptimized)
!149 = !DIImportedEntity(tag: DW_TAG_imported_declaration, scope: !4, entity: !150, file: !14, line: 171)
!150 = !DISubprogram(name: "wcstombs", scope: !6, file: !6, line: 936, type: !151, flags: DIFlagPrototyped, spFlags: DISPFlagOptimized)
!151 = !DISubroutineType(types: !152)
!152 = !{!58, !153, !154, !58}
!153 = !DIDerivedType(tag: DW_TAG_restrict_type, baseType: !85)
!154 = !DIDerivedType(tag: DW_TAG_restrict_type, baseType: !155)
!155 = !DIDerivedType(tag: DW_TAG_pointer_type, baseType: !156, size: 64)
!156 = !DIDerivedType(tag: DW_TAG_const_type, baseType: !108)
!157 = !DIImportedEntity(tag: DW_TAG_imported_declaration, scope: !4, entity: !158, file: !14, line: 172)
!158 = !DISubprogram(name: "wctomb", scope: !6, file: !6, line: 929, type: !159, flags: DIFlagPrototyped, spFlags: DISPFlagOptimized)
!159 = !DISubroutineType(types: !160)
!160 = !{!9, !85, !108}
!161 = !DIImportedEntity(tag: DW_TAG_imported_declaration, scope: !162, entity: !163, file: !14, line: 200)
!162 = !DINamespace(name: "__gnu_cxx", scope: null)
!163 = !DIDerivedType(tag: DW_TAG_typedef, name: "lldiv_t", file: !6, line: 80, baseType: !164)
!164 = distinct !DICompositeType(tag: DW_TAG_structure_type, file: !6, line: 76, size: 128, flags: DIFlagTypePassByValue, elements: !165, identifier: "_ZTS7lldiv_t")
!165 = !{!166, !168}
!166 = !DIDerivedType(tag: DW_TAG_member, name: "quot", scope: !164, file: !6, line: 78, baseType: !167, size: 64)
!167 = !DIBasicType(name: "long long", size: 64, encoding: DW_ATE_signed)
!168 = !DIDerivedType(tag: DW_TAG_member, name: "rem", scope: !164, file: !6, line: 79, baseType: !167, size: 64, offset: 64)
!169 = !DIImportedEntity(tag: DW_TAG_imported_declaration, scope: !162, entity: !170, file: !14, line: 206)
!170 = !DISubprogram(name: "_Exit", scope: !6, file: !6, line: 629, type: !75, flags: DIFlagPrototyped | DIFlagNoReturn, spFlags: DISPFlagOptimized)
!171 = !DIImportedEntity(tag: DW_TAG_imported_declaration, scope: !162, entity: !172, file: !14, line: 210)
!172 = !DISubprogram(name: "llabs", scope: !6, file: !6, line: 844, type: !173, flags: DIFlagPrototyped, spFlags: DISPFlagOptimized)
!173 = !DISubroutineType(types: !174)
!174 = !{!167, !167}
!175 = !DIImportedEntity(tag: DW_TAG_imported_declaration, scope: !162, entity: !176, file: !14, line: 216)
!176 = !DISubprogram(name: "lldiv", scope: !6, file: !6, line: 858, type: !177, flags: DIFlagPrototyped, spFlags: DISPFlagOptimized)
!177 = !DISubroutineType(types: !178)
!178 = !{!163, !167, !167}
!179 = !DIImportedEntity(tag: DW_TAG_imported_declaration, scope: !162, entity: !180, file: !14, line: 227)
!180 = !DISubprogram(name: "atoll", scope: !6, file: !6, line: 373, type: !181, flags: DIFlagPrototyped, spFlags: DISPFlagOptimized)
!181 = !DISubroutineType(types: !182)
!182 = !{!167, !39}
!183 = !DIImportedEntity(tag: DW_TAG_imported_declaration, scope: !162, entity: !184, file: !14, line: 228)
!184 = !DISubprogram(name: "strtoll", scope: !6, file: !6, line: 200, type: !185, flags: DIFlagPrototyped, spFlags: DISPFlagOptimized)
!185 = !DISubroutineType(types: !186)
!186 = !{!167, !109, !137, !9}
!187 = !DIImportedEntity(tag: DW_TAG_imported_declaration, scope: !162, entity: !188, file: !14, line: 229)
!188 = !DISubprogram(name: "strtoull", scope: !6, file: !6, line: 205, type: !189, flags: DIFlagPrototyped, spFlags: DISPFlagOptimized)
!189 = !DISubroutineType(types: !190)
!190 = !{!191, !109, !137, !9}
!191 = !DIBasicType(name: "unsigned long long", size: 64, encoding: DW_ATE_unsigned)
!192 = !DIImportedEntity(tag: DW_TAG_imported_declaration, scope: !162, entity: !193, file: !14, line: 231)
!193 = !DISubprogram(name: "strtof", scope: !6, file: !6, line: 123, type: !194, flags: DIFlagPrototyped, spFlags: DISPFlagOptimized)
!194 = !DISubroutineType(types: !195)
!195 = !{!196, !109, !137}
!196 = !DIBasicType(name: "float", size: 32, encoding: DW_ATE_float)
!197 = !DIImportedEntity(tag: DW_TAG_imported_declaration, scope: !162, entity: !198, file: !14, line: 232)
!198 = !DISubprogram(name: "strtold", scope: !6, file: !6, line: 126, type: !199, flags: DIFlagPrototyped, spFlags: DISPFlagOptimized)
!199 = !DISubroutineType(types: !200)
!200 = !{!201, !109, !137}
!201 = !DIBasicType(name: "long double", size: 128, encoding: DW_ATE_float)
!202 = !DIImportedEntity(tag: DW_TAG_imported_declaration, scope: !4, entity: !163, file: !14, line: 240)
!203 = !DIImportedEntity(tag: DW_TAG_imported_declaration, scope: !4, entity: !170, file: !14, line: 242)
!204 = !DIImportedEntity(tag: DW_TAG_imported_declaration, scope: !4, entity: !172, file: !14, line: 244)
!205 = !DIImportedEntity(tag: DW_TAG_imported_declaration, scope: !4, entity: !206, file: !14, line: 245)
!206 = !DISubprogram(name: "div", linkageName: "_ZN9__gnu_cxx3divExx", scope: !162, file: !14, line: 213, type: !177, flags: DIFlagPrototyped, spFlags: DISPFlagOptimized)
!207 = !DIImportedEntity(tag: DW_TAG_imported_declaration, scope: !4, entity: !176, file: !14, line: 246)
!208 = !DIImportedEntity(tag: DW_TAG_imported_declaration, scope: !4, entity: !180, file: !14, line: 248)
!209 = !DIImportedEntity(tag: DW_TAG_imported_declaration, scope: !4, entity: !193, file: !14, line: 249)
!210 = !DIImportedEntity(tag: DW_TAG_imported_declaration, scope: !4, entity: !184, file: !14, line: 250)
!211 = !DIImportedEntity(tag: DW_TAG_imported_declaration, scope: !4, entity: !188, file: !14, line: 251)
!212 = !DIImportedEntity(tag: DW_TAG_imported_declaration, scope: !4, entity: !198, file: !14, line: 252)
!213 = !DIImportedEntity(tag: DW_TAG_imported_declaration, scope: !0, entity: !23, file: !214, line: 38)
!214 = !DIFile(filename: "/opt/compiler-explorer/gcc-12.2.0/lib/gcc/x86_64-linux-gnu/12.2.0/../../../../include/c++/12.2.0/stdlib.h", directory: "")
!215 = !DIImportedEntity(tag: DW_TAG_imported_declaration, scope: !0, entity: !27, file: !214, line: 39)
!216 = !DIImportedEntity(tag: DW_TAG_imported_declaration, scope: !0, entity: !74, file: !214, line: 40)
!217 = !DIImportedEntity(tag: DW_TAG_imported_declaration, scope: !0, entity: !32, file: !214, line: 43)
!218 = !DIImportedEntity(tag: DW_TAG_imported_declaration, scope: !0, entity: !119, file: !214, line: 46)
!219 = !DIImportedEntity(tag: DW_TAG_imported_declaration, scope: !0, entity: !12, file: !214, line: 51)
!220 = !DIImportedEntity(tag: DW_TAG_imported_declaration, scope: !0, entity: !16, file: !214, line: 52)
!221 = !DIImportedEntity(tag: DW_TAG_imported_declaration, scope: !0, entity: !222, file: !214, line: 54)
!222 = !DISubprogram(name: "abs", linkageName: "_ZSt3absg", scope: !4, file: !10, line: 103, type: !223, flags: DIFlagPrototyped, spFlags: DISPFlagOptimized)
!223 = !DISubroutineType(types: !224)
!224 = !{!225, !225}
!225 = !DIBasicType(name: "__float128", size: 128, encoding: DW_ATE_float)
!226 = !DIImportedEntity(tag: DW_TAG_imported_declaration, scope: !0, entity: !34, file: !214, line: 55)
!227 = !DIImportedEntity(tag: DW_TAG_imported_declaration, scope: !0, entity: !43, file: !214, line: 56)
!228 = !DIImportedEntity(tag: DW_TAG_imported_declaration, scope: !0, entity: !47, file: !214, line: 57)
!229 = !DIImportedEntity(tag: DW_TAG_imported_declaration, scope: !0, entity: !51, file: !214, line: 58)
!230 = !DIImportedEntity(tag: DW_TAG_imported_declaration, scope: !0, entity: !66, file: !214, line: 59)
!231 = !DIImportedEntity(tag: DW_TAG_imported_declaration, scope: !0, entity: !206, file: !214, line: 60)
!232 = !DIImportedEntity(tag: DW_TAG_imported_declaration, scope: !0, entity: !78, file: !214, line: 61)
!233 = !DIImportedEntity(tag: DW_TAG_imported_declaration, scope: !0, entity: !82, file: !214, line: 62)
!234 = !DIImportedEntity(tag: DW_TAG_imported_declaration, scope: !0, entity: !87, file: !214, line: 63)
!235 = !DIImportedEntity(tag: DW_TAG_imported_declaration, scope: !0, entity: !91, file: !214, line: 64)
!236 = !DIImportedEntity(tag: DW_TAG_imported_declaration, scope: !0, entity: !95, file: !214, line: 65)
!237 = !DIImportedEntity(tag: DW_TAG_imported_declaration, scope: !0, entity: !99, file: !214, line: 67)
!238 = !DIImportedEntity(tag: DW_TAG_imported_declaration, scope: !0, entity: !103, file: !214, line: 68)
!239 = !DIImportedEntity(tag: DW_TAG_imported_declaration, scope: !0, entity: !111, file: !214, line: 69)
!240 = !DIImportedEntity(tag: DW_TAG_imported_declaration, scope: !0, entity: !115, file: !214, line: 71)
!241 = !DIImportedEntity(tag: DW_TAG_imported_declaration, scope: !0, entity: !121, file: !214, line: 72)
!242 = !DIImportedEntity(tag: DW_TAG_imported_declaration, scope: !0, entity: !125, file: !214, line: 73)
!243 = !DIImportedEntity(tag: DW_TAG_imported_declaration, scope: !0, entity: !129, file: !214, line: 74)
!244 = !DIImportedEntity(tag: DW_TAG_imported_declaration, scope: !0, entity: !134, file: !214, line: 75)
!245 = !DIImportedEntity(tag: DW_TAG_imported_declaration, scope: !0, entity: !140, file: !214, line: 76)
!246 = !DIImportedEntity(tag: DW_TAG_imported_declaration, scope: !0, entity: !144, file: !214, line: 77)
!247 = !DIImportedEntity(tag: DW_TAG_imported_declaration, scope: !0, entity: !148, file: !214, line: 78)
!248 = !DIImportedEntity(tag: DW_TAG_imported_declaration, scope: !0, entity: !150, file: !214, line: 80)
!249 = !DIImportedEntity(tag: DW_TAG_imported_declaration, scope: !0, entity: !158, file: !214, line: 81)
!250 = !{i32 7, !"Dwarf Version", i32 4}
!251 = !{i32 2, !"Debug Info Version", i32 3}
!252 = !{i32 1, !"wchar_size", i32 4}
!253 = !{i32 7, !"PIC Level", i32 2}
!254 = !{i32 7, !"PIE Level", i32 2}
!255 = !{i32 7, !"uwtable", i32 2}
!256 = !{!"clang version 15.0.0 (https://github.com/llvm/llvm-project.git 4ba6a9c9f65bbc8bd06e3652cb20fd4dfc846137)"}
!257 = distinct !DISubprogram(name: "calc_neighborhood", linkageName: "_Z17calc_neighborhoodiiPA80_A120_i", scope: !258, file: !258, line: 17, type: !259, scopeLine: 18, flags: DIFlagPrototyped | DIFlagAllCallsDescribed, spFlags: DISPFlagDefinition | DISPFlagOptimized, unit: !0, retainedNodes: !266)
!258 = !DIFile(filename: "example.cpp", directory: "/app")
!259 = !DISubroutineType(types: !260)
!260 = !{!9, !9, !9, !261}
!261 = !DIDerivedType(tag: DW_TAG_pointer_type, baseType: !262, size: 64)
!262 = !DICompositeType(tag: DW_TAG_array_type, baseType: !9, size: 307200, elements: !263)
!263 = !{!264, !265}
!264 = !DISubrange(count: 80)
!265 = !DISubrange(count: 120)
!266 = !{!267, !268, !269, !270, !274, !275, !276, !277, !278, !279, !281, !284, !285}
!267 = !DILocalVariable(name: "ind_x", arg: 1, scope: !257, file: !258, line: 17, type: !9)
!268 = !DILocalVariable(name: "ind_y", arg: 2, scope: !257, file: !258, line: 17, type: !9)
!269 = !DILocalVariable(name: "squares", arg: 3, scope: !257, file: !258, line: 17, type: !261)
!270 = !DILocalVariable(name: "arr_movement_x", scope: !257, file: !258, line: 19, type: !271)
!271 = !DICompositeType(tag: DW_TAG_array_type, baseType: !9, size: 256, elements: !272)
!272 = !{!273}
!273 = !DISubrange(count: 8)
!274 = !DILocalVariable(name: "arr_movement_y", scope: !257, file: !258, line: 20, type: !271)
!275 = !DILocalVariable(name: "sz", scope: !257, file: !258, line: 21, type: !9)
!276 = !DILocalVariable(name: "next_x", scope: !257, file: !258, line: 23, type: !9)
!277 = !DILocalVariable(name: "next_y", scope: !257, file: !258, line: 23, type: !9)
!278 = !DILocalVariable(name: "res", scope: !257, file: !258, line: 24, type: !9)
!279 = !DILocalVariable(name: "i", scope: !280, file: !258, line: 26, type: !9)
!280 = distinct !DILexicalBlock(scope: !257, file: !258, line: 26, column: 5)
!281 = !DILocalVariable(name: "next_x", scope: !282, file: !258, line: 27, type: !9)
!282 = distinct !DILexicalBlock(scope: !283, file: !258, line: 26, column: 34)
!283 = distinct !DILexicalBlock(scope: !280, file: !258, line: 26, column: 5)
!284 = !DILocalVariable(name: "next_y", scope: !282, file: !258, line: 28, type: !9)
!285 = !DILocalVariable(name: "correctness", scope: !282, file: !258, line: 30, type: !9)
!286 = !{!287, !287, i64 0}
!287 = !{!"int", !288, i64 0}
!288 = !{!"omnipotent char", !289, i64 0}
!289 = !{!"Simple C++ TBAA"}
!290 = !DILocation(line: 17, column: 27, scope: !257)
!291 = !DILocation(line: 17, column: 38, scope: !257)
!292 = !{!293, !293, i64 0}
!293 = !{!"any pointer", !288, i64 0}
!294 = !DILocation(line: 17, column: 51, scope: !257)
!295 = !DILocation(line: 19, column: 5, scope: !257)
!296 = !DILocation(line: 19, column: 9, scope: !257)
!297 = !DILocation(line: 20, column: 5, scope: !257)
!298 = !DILocation(line: 20, column: 9, scope: !257)
!299 = !DILocation(line: 21, column: 5, scope: !257)
!300 = !DILocation(line: 21, column: 9, scope: !257)
!301 = !DILocation(line: 23, column: 5, scope: !257)
!302 = !DILocation(line: 23, column: 9, scope: !257)
!303 = !DILocation(line: 23, column: 17, scope: !257)
!304 = !DILocation(line: 24, column: 5, scope: !257)
!305 = !DILocation(line: 24, column: 9, scope: !257)
!306 = !DILocation(line: 26, column: 10, scope: !280)
!307 = !DILocation(line: 26, column: 14, scope: !280)
!308 = !DILocation(line: 26, column: 21, scope: !283)
!309 = !DILocation(line: 26, column: 25, scope: !283)
!310 = !DILocation(line: 26, column: 23, scope: !283)
!311 = !DILocation(line: 26, column: 5, scope: !280)
!312 = !DILocation(line: 26, column: 5, scope: !283)
!313 = !DILocation(line: 27, column: 9, scope: !282)
!314 = !DILocation(line: 27, column: 13, scope: !282)
!315 = !DILocation(line: 27, column: 22, scope: !282)
!316 = !DILocation(line: 27, column: 45, scope: !282)
!317 = !DILocation(line: 27, column: 30, scope: !282)
!318 = !DILocation(line: 27, column: 28, scope: !282)
!319 = !DILocation(line: 28, column: 9, scope: !282)
!320 = !DILocation(line: 28, column: 13, scope: !282)
!321 = !DILocation(line: 28, column: 22, scope: !282)
!322 = !DILocation(line: 28, column: 45, scope: !282)
!323 = !DILocation(line: 28, column: 30, scope: !282)
!324 = !DILocation(line: 28, column: 28, scope: !282)
!325 = !DILocation(line: 30, column: 9, scope: !282)
!326 = !DILocation(line: 30, column: 13, scope: !282)
!327 = !DILocation(line: 30, column: 28, scope: !282)
!328 = !DILocation(line: 30, column: 35, scope: !282)
!329 = !DILocation(line: 30, column: 40, scope: !282)
!330 = !DILocation(line: 30, column: 43, scope: !282)
!331 = !DILocation(line: 30, column: 50, scope: !282)
!332 = !DILocation(line: 30, column: 55, scope: !282)
!333 = !DILocation(line: 30, column: 58, scope: !282)
!334 = !DILocation(line: 30, column: 65, scope: !282)
!335 = !DILocation(line: 30, column: 78, scope: !282)
!336 = !DILocation(line: 30, column: 81, scope: !282)
!337 = !DILocation(line: 30, column: 88, scope: !282)
!338 = !DILocation(line: 0, scope: !282)
!339 = !DILocation(line: 30, column: 27, scope: !282)
!340 = !DILocation(line: 31, column: 13, scope: !341)
!341 = distinct !DILexicalBlock(scope: !282, file: !258, line: 31, column: 13)
!342 = !DILocation(line: 31, column: 25, scope: !341)
!343 = !DILocation(line: 31, column: 30, scope: !341)
!344 = !DILocation(line: 31, column: 39, scope: !341)
!345 = !DILocation(line: 31, column: 28, scope: !341)
!346 = !DILocation(line: 31, column: 47, scope: !341)
!347 = !DILocation(line: 31, column: 55, scope: !341)
!348 = !DILocation(line: 31, column: 13, scope: !282)
!349 = !DILocation(line: 32, column: 16, scope: !350)
!350 = distinct !DILexicalBlock(scope: !341, file: !258, line: 31, column: 61)
!351 = !DILocation(line: 33, column: 9, scope: !350)
!352 = !DILocation(line: 34, column: 5, scope: !283)
!353 = !DILocation(line: 34, column: 5, scope: !282)
!354 = !DILocation(line: 26, column: 29, scope: !283)
!355 = distinct !{!355, !311, !356, !357}
!356 = !DILocation(line: 34, column: 5, scope: !280)
!357 = !{!"llvm.loop.mustprogress"}
!358 = !DILocation(line: 36, column: 12, scope: !257)
!359 = !DILocation(line: 37, column: 1, scope: !257)
!360 = !DILocation(line: 36, column: 5, scope: !257)
!361 = distinct !DISubprogram(name: "fill_next", linkageName: "_Z9fill_nextPA80_A120_iS1_", scope: !258, file: !258, line: 39, type: !362, scopeLine: 40, flags: DIFlagPrototyped | DIFlagAllCallsDescribed, spFlags: DISPFlagDefinition | DISPFlagOptimized, unit: !0, retainedNodes: !364)
!362 = !DISubroutineType(types: !363)
!363 = !{null, !261, !261}
!364 = !{!365, !366, !367, !368, !370, !374, !377, !379}
!365 = !DILocalVariable(name: "squares", arg: 1, scope: !361, file: !258, line: 39, type: !261)
!366 = !DILocalVariable(name: "squares_next", arg: 2, scope: !361, file: !258, line: 39, type: !261)
!367 = !DILocalVariable(name: "neigbors", scope: !361, file: !258, line: 41, type: !9)
!368 = !DILocalVariable(name: "i", scope: !369, file: !258, line: 42, type: !9)
!369 = distinct !DILexicalBlock(scope: !361, file: !258, line: 42, column: 5)
!370 = !DILocalVariable(name: "j", scope: !371, file: !258, line: 43, type: !9)
!371 = distinct !DILexicalBlock(scope: !372, file: !258, line: 43, column: 9)
!372 = distinct !DILexicalBlock(scope: !373, file: !258, line: 42, column: 42)
!373 = distinct !DILexicalBlock(scope: !369, file: !258, line: 42, column: 5)
!374 = !DILocalVariable(name: "death_condition", scope: !375, file: !258, line: 46, type: !9)
!375 = distinct !DILexicalBlock(scope: !376, file: !258, line: 43, column: 46)
!376 = distinct !DILexicalBlock(scope: !371, file: !258, line: 43, column: 9)
!377 = !DILocalVariable(name: "i", scope: !378, file: !258, line: 54, type: !9)
!378 = distinct !DILexicalBlock(scope: !361, file: !258, line: 54, column: 5)
!379 = !DILocalVariable(name: "j", scope: !380, file: !258, line: 55, type: !9)
!380 = distinct !DILexicalBlock(scope: !381, file: !258, line: 55, column: 9)
!381 = distinct !DILexicalBlock(scope: !382, file: !258, line: 54, column: 42)
!382 = distinct !DILexicalBlock(scope: !378, file: !258, line: 54, column: 5)
!383 = !DILocation(line: 39, column: 22, scope: !361)
!384 = !DILocation(line: 39, column: 62, scope: !361)
!385 = !DILocation(line: 41, column: 5, scope: !361)
!386 = !DILocation(line: 41, column: 9, scope: !361)
!387 = !DILocation(line: 42, column: 10, scope: !369)
!388 = !DILocation(line: 42, column: 14, scope: !369)
!389 = !DILocation(line: 42, column: 21, scope: !373)
!390 = !DILocation(line: 42, column: 23, scope: !373)
!391 = !DILocation(line: 42, column: 5, scope: !369)
!392 = !DILocation(line: 42, column: 5, scope: !373)
!393 = !DILocation(line: 43, column: 14, scope: !371)
!394 = !DILocation(line: 43, column: 18, scope: !371)
!395 = !DILocation(line: 43, column: 25, scope: !376)
!396 = !DILocation(line: 43, column: 27, scope: !376)
!397 = !DILocation(line: 43, column: 9, scope: !371)
!398 = !DILocation(line: 43, column: 9, scope: !376)
!399 = !DILocation(line: 44, column: 42, scope: !375)
!400 = !DILocation(line: 44, column: 45, scope: !375)
!401 = !DILocation(line: 44, column: 48, scope: !375)
!402 = !DILocation(line: 44, column: 24, scope: !375)
!403 = !DILocation(line: 44, column: 22, scope: !375)
!404 = !DILocation(line: 46, column: 13, scope: !375)
!405 = !DILocation(line: 46, column: 17, scope: !375)
!406 = !DILocation(line: 46, column: 35, scope: !375)
!407 = !DILocation(line: 46, column: 44, scope: !375)
!408 = !DILocation(line: 46, column: 48, scope: !375)
!409 = !DILocation(line: 46, column: 51, scope: !375)
!410 = !DILocation(line: 46, column: 60, scope: !375)
!411 = !DILocation(line: 47, column: 17, scope: !412)
!412 = distinct !DILexicalBlock(scope: !375, file: !258, line: 47, column: 17)
!413 = !DILocation(line: 47, column: 33, scope: !412)
!414 = !DILocation(line: 47, column: 17, scope: !375)
!415 = !DILocation(line: 48, column: 19, scope: !416)
!416 = distinct !DILexicalBlock(scope: !412, file: !258, line: 47, column: 38)
!417 = !DILocation(line: 48, column: 33, scope: !416)
!418 = !DILocation(line: 48, column: 17, scope: !416)
!419 = !DILocation(line: 48, column: 36, scope: !416)
!420 = !DILocation(line: 48, column: 39, scope: !416)
!421 = !DILocation(line: 49, column: 17, scope: !416)
!422 = !DILocation(line: 51, column: 15, scope: !375)
!423 = !DILocation(line: 51, column: 29, scope: !375)
!424 = !DILocation(line: 51, column: 13, scope: !375)
!425 = !DILocation(line: 51, column: 32, scope: !375)
!426 = !DILocation(line: 51, column: 35, scope: !375)
!427 = !DILocation(line: 52, column: 9, scope: !376)
!428 = !DILocation(line: 52, column: 9, scope: !375)
!429 = !DILocation(line: 43, column: 41, scope: !376)
!430 = distinct !{!430, !397, !431, !357}
!431 = !DILocation(line: 52, column: 9, scope: !371)
!432 = !DILocation(line: 53, column: 5, scope: !372)
!433 = !DILocation(line: 42, column: 37, scope: !373)
!434 = distinct !{!434, !391, !435, !357}
!435 = !DILocation(line: 53, column: 5, scope: !369)
!436 = !DILocation(line: 54, column: 10, scope: !378)
!437 = !DILocation(line: 54, column: 14, scope: !378)
!438 = !DILocation(line: 54, column: 21, scope: !382)
!439 = !DILocation(line: 54, column: 23, scope: !382)
!440 = !DILocation(line: 54, column: 5, scope: !378)
!441 = !DILocation(line: 54, column: 5, scope: !382)
!442 = !DILocation(line: 55, column: 14, scope: !380)
!443 = !DILocation(line: 55, column: 18, scope: !380)
!444 = !DILocation(line: 55, column: 25, scope: !445)
!445 = distinct !DILexicalBlock(scope: !380, file: !258, line: 55, column: 9)
!446 = !DILocation(line: 55, column: 27, scope: !445)
!447 = !DILocation(line: 55, column: 9, scope: !380)
!448 = !DILocation(line: 55, column: 9, scope: !445)
!449 = !DILocation(line: 56, column: 34, scope: !450)
!450 = distinct !DILexicalBlock(scope: !445, file: !258, line: 55, column: 46)
!451 = !DILocation(line: 56, column: 48, scope: !450)
!452 = !DILocation(line: 56, column: 32, scope: !450)
!453 = !DILocation(line: 56, column: 51, scope: !450)
!454 = !DILocation(line: 56, column: 15, scope: !450)
!455 = !DILocation(line: 56, column: 24, scope: !450)
!456 = !DILocation(line: 56, column: 13, scope: !450)
!457 = !DILocation(line: 56, column: 27, scope: !450)
!458 = !DILocation(line: 56, column: 30, scope: !450)
!459 = !DILocation(line: 57, column: 9, scope: !450)
!460 = !DILocation(line: 55, column: 41, scope: !445)
!461 = distinct !{!461, !447, !462, !357}
!462 = !DILocation(line: 57, column: 9, scope: !380)
!463 = !DILocation(line: 58, column: 5, scope: !381)
!464 = !DILocation(line: 54, column: 37, scope: !382)
!465 = distinct !{!465, !440, !466, !357}
!466 = !DILocation(line: 58, column: 5, scope: !378)
!467 = !DILocation(line: 59, column: 1, scope: !361)
!468 = distinct !DISubprogram(name: "printSquare", linkageName: "_Z11printSquarePA80_A120_iii", scope: !258, file: !258, line: 61, type: !469, scopeLine: 61, flags: DIFlagPrototyped | DIFlagAllCallsDescribed, spFlags: DISPFlagDefinition | DISPFlagOptimized, unit: !0, retainedNodes: !471)
!469 = !DISubroutineType(types: !470)
!470 = !{null, !261, !9, !9}
!471 = !{!472, !473, !474, !475, !476, !477, !481, !485, !487}
!472 = !DILocalVariable(name: "squares", arg: 1, scope: !468, file: !258, line: 61, type: !261)
!473 = !DILocalVariable(name: "x", arg: 2, scope: !468, file: !258, line: 61, type: !9)
!474 = !DILocalVariable(name: "y", arg: 3, scope: !468, file: !258, line: 61, type: !9)
!475 = !DILocalVariable(name: "black", scope: !468, file: !258, line: 62, type: !9)
!476 = !DILocalVariable(name: "darkorchid", scope: !468, file: !258, line: 63, type: !9)
!477 = !DILocalVariable(name: "i", scope: !478, file: !258, line: 66, type: !9)
!478 = distinct !DILexicalBlock(scope: !479, file: !258, line: 66, column: 9)
!479 = distinct !DILexicalBlock(scope: !480, file: !258, line: 65, column: 32)
!480 = distinct !DILexicalBlock(scope: !468, file: !258, line: 65, column: 9)
!481 = !DILocalVariable(name: "j", scope: !482, file: !258, line: 67, type: !9)
!482 = distinct !DILexicalBlock(scope: !483, file: !258, line: 67, column: 13)
!483 = distinct !DILexicalBlock(scope: !484, file: !258, line: 66, column: 43)
!484 = distinct !DILexicalBlock(scope: !478, file: !258, line: 66, column: 9)
!485 = !DILocalVariable(name: "i", scope: !486, file: !258, line: 75, type: !9)
!486 = distinct !DILexicalBlock(scope: !468, file: !258, line: 75, column: 5)
!487 = !DILocalVariable(name: "j", scope: !488, file: !258, line: 76, type: !9)
!488 = distinct !DILexicalBlock(scope: !489, file: !258, line: 76, column: 9)
!489 = distinct !DILexicalBlock(scope: !490, file: !258, line: 75, column: 39)
!490 = distinct !DILexicalBlock(scope: !486, file: !258, line: 75, column: 5)
!491 = !DILocation(line: 61, column: 24, scope: !468)
!492 = !DILocation(line: 61, column: 62, scope: !468)
!493 = !DILocation(line: 61, column: 69, scope: !468)
!494 = !DILocation(line: 62, column: 5, scope: !468)
!495 = !DILocation(line: 62, column: 9, scope: !468)
!496 = !DILocation(line: 63, column: 5, scope: !468)
!497 = !DILocation(line: 63, column: 9, scope: !468)
!498 = !DILocation(line: 65, column: 11, scope: !480)
!499 = !DILocation(line: 65, column: 20, scope: !480)
!500 = !DILocation(line: 65, column: 9, scope: !480)
!501 = !DILocation(line: 65, column: 23, scope: !480)
!502 = !DILocation(line: 65, column: 26, scope: !480)
!503 = !DILocation(line: 65, column: 9, scope: !468)
!504 = !DILocation(line: 66, column: 14, scope: !478)
!505 = !DILocation(line: 66, column: 18, scope: !478)
!506 = !DILocation(line: 66, column: 25, scope: !484)
!507 = !DILocation(line: 66, column: 27, scope: !484)
!508 = !DILocation(line: 66, column: 9, scope: !478)
!509 = !DILocation(line: 66, column: 9, scope: !484)
!510 = !DILocation(line: 67, column: 18, scope: !482)
!511 = !DILocation(line: 67, column: 22, scope: !482)
!512 = !DILocation(line: 67, column: 29, scope: !513)
!513 = distinct !DILexicalBlock(scope: !482, file: !258, line: 67, column: 13)
!514 = !DILocation(line: 67, column: 31, scope: !513)
!515 = !DILocation(line: 67, column: 13, scope: !482)
!516 = !DILocation(line: 67, column: 13, scope: !513)
!517 = !DILocation(line: 68, column: 29, scope: !518)
!518 = distinct !DILexicalBlock(scope: !513, file: !258, line: 67, column: 47)
!519 = !DILocation(line: 68, column: 31, scope: !518)
!520 = !DILocation(line: 68, column: 43, scope: !518)
!521 = !DILocation(line: 68, column: 41, scope: !518)
!522 = !DILocation(line: 68, column: 46, scope: !518)
!523 = !DILocation(line: 68, column: 48, scope: !518)
!524 = !DILocation(line: 68, column: 60, scope: !518)
!525 = !DILocation(line: 68, column: 58, scope: !518)
!526 = !DILocation(line: 68, column: 63, scope: !518)
!527 = !DILocation(line: 68, column: 17, scope: !518)
!528 = !DILocation(line: 69, column: 13, scope: !518)
!529 = !DILocation(line: 67, column: 42, scope: !513)
!530 = distinct !{!530, !515, !531, !357}
!531 = !DILocation(line: 69, column: 13, scope: !482)
!532 = !DILocation(line: 70, column: 9, scope: !483)
!533 = !DILocation(line: 66, column: 38, scope: !484)
!534 = distinct !{!534, !508, !535, !357}
!535 = !DILocation(line: 70, column: 9, scope: !478)
!536 = !DILocation(line: 72, column: 9, scope: !479)
!537 = !DILocation(line: 75, column: 10, scope: !486)
!538 = !DILocation(line: 75, column: 14, scope: !486)
!539 = !DILocation(line: 75, column: 21, scope: !490)
!540 = !DILocation(line: 75, column: 23, scope: !490)
!541 = !DILocation(line: 75, column: 5, scope: !486)
!542 = !DILocation(line: 75, column: 5, scope: !490)
!543 = !DILocation(line: 76, column: 14, scope: !488)
!544 = !DILocation(line: 76, column: 18, scope: !488)
!545 = !DILocation(line: 76, column: 25, scope: !546)
!546 = distinct !DILexicalBlock(scope: !488, file: !258, line: 76, column: 9)
!547 = !DILocation(line: 76, column: 27, scope: !546)
!548 = !DILocation(line: 76, column: 9, scope: !488)
!549 = !DILocation(line: 76, column: 9, scope: !546)
!550 = !DILocation(line: 77, column: 25, scope: !551)
!551 = distinct !DILexicalBlock(scope: !546, file: !258, line: 76, column: 43)
!552 = !DILocation(line: 77, column: 27, scope: !551)
!553 = !DILocation(line: 77, column: 39, scope: !551)
!554 = !DILocation(line: 77, column: 37, scope: !551)
!555 = !DILocation(line: 77, column: 42, scope: !551)
!556 = !DILocation(line: 77, column: 44, scope: !551)
!557 = !DILocation(line: 77, column: 56, scope: !551)
!558 = !DILocation(line: 77, column: 54, scope: !551)
!559 = !DILocation(line: 77, column: 59, scope: !551)
!560 = !DILocation(line: 77, column: 13, scope: !551)
!561 = !DILocation(line: 78, column: 9, scope: !551)
!562 = !DILocation(line: 76, column: 38, scope: !546)
!563 = distinct !{!563, !548, !564, !357}
!564 = !DILocation(line: 78, column: 9, scope: !488)
!565 = !DILocation(line: 79, column: 5, scope: !489)
!566 = !DILocation(line: 75, column: 34, scope: !490)
!567 = distinct !{!567, !541, !568, !357}
!568 = !DILocation(line: 79, column: 5, scope: !486)
!569 = !DILocation(line: 80, column: 1, scope: !468)
!570 = !DISubprogram(name: "simPutPixel", linkageName: "_Z11simPutPixeliii", scope: !258, file: !258, line: 13, type: !571, flags: DIFlagPrototyped, spFlags: DISPFlagOptimized, retainedNodes: !573)
!571 = !DISubroutineType(types: !572)
!572 = !{null, !9, !9, !9}
!573 = !{}
!574 = distinct !DISubprogram(name: "app", linkageName: "_Z3appv", scope: !258, file: !258, line: 82, type: !24, scopeLine: 82, flags: DIFlagPrototyped | DIFlagAllCallsDescribed, spFlags: DISPFlagDefinition | DISPFlagOptimized, unit: !0, retainedNodes: !575)
!575 = !{!576, !577, !578, !579, !581, !585, !588, !590, !594}
!576 = !DILocalVariable(name: "squares", scope: !574, file: !258, line: 83, type: !262)
!577 = !DILocalVariable(name: "squares_next", scope: !574, file: !258, line: 84, type: !262)
!578 = !DILocalVariable(name: "sqr_num", scope: !574, file: !258, line: 87, type: !9)
!579 = !DILocalVariable(name: "i", scope: !580, file: !258, line: 90, type: !9)
!580 = distinct !DILexicalBlock(scope: !574, file: !258, line: 90, column: 5)
!581 = !DILocalVariable(name: "j", scope: !582, file: !258, line: 91, type: !9)
!582 = distinct !DILexicalBlock(scope: !583, file: !258, line: 91, column: 9)
!583 = distinct !DILexicalBlock(scope: !584, file: !258, line: 90, column: 42)
!584 = distinct !DILexicalBlock(scope: !580, file: !258, line: 90, column: 5)
!585 = !DILocalVariable(name: "random", scope: !586, file: !258, line: 92, type: !9)
!586 = distinct !DILexicalBlock(scope: !587, file: !258, line: 91, column: 46)
!587 = distinct !DILexicalBlock(scope: !582, file: !258, line: 91, column: 9)
!588 = !DILocalVariable(name: "step", scope: !589, file: !258, line: 102, type: !9)
!589 = distinct !DILexicalBlock(scope: !574, file: !258, line: 102, column: 5)
!590 = !DILocalVariable(name: "y", scope: !591, file: !258, line: 103, type: !9)
!591 = distinct !DILexicalBlock(scope: !592, file: !258, line: 103, column: 9)
!592 = distinct !DILexicalBlock(scope: !593, file: !258, line: 102, column: 45)
!593 = distinct !DILexicalBlock(scope: !589, file: !258, line: 102, column: 5)
!594 = !DILocalVariable(name: "x", scope: !595, file: !258, line: 104, type: !9)
!595 = distinct !DILexicalBlock(scope: !596, file: !258, line: 104, column: 13)
!596 = distinct !DILexicalBlock(scope: !597, file: !258, line: 103, column: 46)
!597 = distinct !DILexicalBlock(scope: !591, file: !258, line: 103, column: 9)
!598 = !DILocation(line: 83, column: 5, scope: !574)
!599 = !DILocation(line: 83, column: 9, scope: !574)
!600 = !DILocation(line: 84, column: 5, scope: !574)
!601 = !DILocation(line: 84, column: 9, scope: !574)
!602 = !DILocation(line: 87, column: 5, scope: !574)
!603 = !DILocation(line: 87, column: 9, scope: !574)
!604 = !DILocation(line: 90, column: 10, scope: !580)
!605 = !DILocation(line: 90, column: 14, scope: !580)
!606 = !DILocation(line: 90, column: 21, scope: !584)
!607 = !DILocation(line: 90, column: 23, scope: !584)
!608 = !DILocation(line: 90, column: 5, scope: !580)
!609 = !DILocation(line: 90, column: 5, scope: !584)
!610 = !DILocation(line: 91, column: 14, scope: !582)
!611 = !DILocation(line: 91, column: 18, scope: !582)
!612 = !DILocation(line: 91, column: 25, scope: !587)
!613 = !DILocation(line: 91, column: 27, scope: !587)
!614 = !DILocation(line: 91, column: 9, scope: !582)
!615 = !DILocation(line: 91, column: 9, scope: !587)
!616 = !DILocation(line: 92, column: 13, scope: !586)
!617 = !DILocation(line: 92, column: 17, scope: !586)
!618 = !DILocation(line: 92, column: 26, scope: !586)
!619 = !DILocation(line: 92, column: 38, scope: !586)
!620 = !DILocation(line: 92, column: 36, scope: !586)
!621 = !DILocation(line: 93, column: 17, scope: !622)
!622 = distinct !DILexicalBlock(scope: !586, file: !258, line: 93, column: 17)
!623 = !DILocation(line: 93, column: 24, scope: !622)
!624 = !DILocation(line: 93, column: 17, scope: !586)
!625 = !DILocation(line: 94, column: 25, scope: !626)
!626 = distinct !DILexicalBlock(scope: !622, file: !258, line: 93, column: 29)
!627 = !DILocation(line: 94, column: 17, scope: !626)
!628 = !DILocation(line: 94, column: 28, scope: !626)
!629 = !DILocation(line: 94, column: 31, scope: !626)
!630 = !DILocation(line: 95, column: 17, scope: !626)
!631 = !DILocation(line: 97, column: 21, scope: !586)
!632 = !DILocation(line: 97, column: 13, scope: !586)
!633 = !DILocation(line: 97, column: 24, scope: !586)
!634 = !DILocation(line: 97, column: 27, scope: !586)
!635 = !DILocation(line: 98, column: 9, scope: !587)
!636 = !DILocation(line: 98, column: 9, scope: !586)
!637 = !DILocation(line: 91, column: 41, scope: !587)
!638 = distinct !{!638, !614, !639, !357}
!639 = !DILocation(line: 98, column: 9, scope: !582)
!640 = !DILocation(line: 99, column: 5, scope: !583)
!641 = !DILocation(line: 90, column: 37, scope: !584)
!642 = distinct !{!642, !608, !643, !357}
!643 = !DILocation(line: 99, column: 5, scope: !580)
!644 = !DILocation(line: 102, column: 10, scope: !589)
!645 = !DILocation(line: 102, column: 14, scope: !589)
!646 = !DILocation(line: 102, column: 24, scope: !593)
!647 = !DILocation(line: 102, column: 29, scope: !593)
!648 = !DILocation(line: 102, column: 5, scope: !589)
!649 = !DILocation(line: 102, column: 5, scope: !593)
!650 = !DILocation(line: 103, column: 14, scope: !591)
!651 = !DILocation(line: 103, column: 18, scope: !591)
!652 = !DILocation(line: 103, column: 25, scope: !597)
!653 = !DILocation(line: 103, column: 27, scope: !597)
!654 = !DILocation(line: 103, column: 9, scope: !591)
!655 = !DILocation(line: 103, column: 9, scope: !597)
!656 = !DILocation(line: 104, column: 18, scope: !595)
!657 = !DILocation(line: 104, column: 22, scope: !595)
!658 = !DILocation(line: 104, column: 29, scope: !659)
!659 = distinct !DILexicalBlock(scope: !595, file: !258, line: 104, column: 13)
!660 = !DILocation(line: 104, column: 31, scope: !659)
!661 = !DILocation(line: 104, column: 13, scope: !595)
!662 = !DILocation(line: 104, column: 13, scope: !659)
!663 = !DILocation(line: 105, column: 39, scope: !664)
!664 = distinct !DILexicalBlock(scope: !659, file: !258, line: 104, column: 50)
!665 = !DILocation(line: 105, column: 42, scope: !664)
!666 = !DILocation(line: 105, column: 17, scope: !664)
!667 = !DILocation(line: 106, column: 13, scope: !664)
!668 = !DILocation(line: 104, column: 45, scope: !659)
!669 = distinct !{!669, !661, !670, !357}
!670 = !DILocation(line: 106, column: 13, scope: !595)
!671 = !DILocation(line: 107, column: 9, scope: !596)
!672 = !DILocation(line: 103, column: 41, scope: !597)
!673 = distinct !{!673, !654, !674, !357}
!674 = !DILocation(line: 107, column: 9, scope: !591)
!675 = !DILocation(line: 108, column: 9, scope: !592)
!676 = !DILocation(line: 109, column: 9, scope: !592)
!677 = !DILocation(line: 110, column: 5, scope: !592)
!678 = !DILocation(line: 102, column: 37, scope: !593)
!679 = distinct !{!679, !648, !680, !357}
!680 = !DILocation(line: 110, column: 5, scope: !589)
!681 = !DILocation(line: 111, column: 1, scope: !574)
!682 = !DISubprogram(name: "simRand", linkageName: "_Z7simRandv", scope: !258, file: !258, line: 14, type: !122, flags: DIFlagPrototyped, spFlags: DISPFlagOptimized, retainedNodes: !573)
!683 = !DISubprogram(name: "simFlush", linkageName: "_Z8simFlushv", scope: !258, file: !258, line: 12, type: !24, flags: DIFlagPrototyped, spFlags: DISPFlagOptimized, retainedNodes: !573)
*** IR Dump After ForceFunctionAttrsPass on [module] ***
; ModuleID = '<source>'
source_filename = "<source>"
target datalayout = "e-m:e-p270:32:32-p271:32:32-p272:64:64-i64:64-f80:128-n8:16:32:64-S128"
target triple = "x86_64-unknown-linux-gnu"

@__const._Z17calc_neighborhoodiiPA80_A120_i.arr_movement_x = private unnamed_addr constant [8 x i32] [i32 -1, i32 -1, i32 1, i32 1, i32 1, i32 0, i32 1, i32 0], align 16
@__const._Z17calc_neighborhoodiiPA80_A120_i.arr_movement_y = private unnamed_addr constant [8 x i32] [i32 0, i32 -1, i32 0, i32 -1, i32 -1, i32 0, i32 -1, i32 -1], align 16

; Function Attrs: mustprogress nounwind uwtable
define dso_local noundef i32 @_Z17calc_neighborhoodiiPA80_A120_i(i32 noundef %0, i32 noundef %1, ptr noundef %2) #0 !dbg !257 {
  %4 = alloca i32, align 4
  %5 = alloca i32, align 4
  %6 = alloca ptr, align 8
  %7 = alloca [8 x i32], align 16
  %8 = alloca [8 x i32], align 16
  %9 = alloca i32, align 4
  %10 = alloca i32, align 4
  %11 = alloca i32, align 4
  %12 = alloca i32, align 4
  %13 = alloca i32, align 4
  %14 = alloca i32, align 4
  %15 = alloca i32, align 4
  %16 = alloca i32, align 4
  store i32 %0, ptr %4, align 4, !tbaa !286
  call void @llvm.dbg.declare(metadata ptr %4, metadata !267, metadata !DIExpression()), !dbg !290
  store i32 %1, ptr %5, align 4, !tbaa !286
  call void @llvm.dbg.declare(metadata ptr %5, metadata !268, metadata !DIExpression()), !dbg !291
  store ptr %2, ptr %6, align 8, !tbaa !292
  call void @llvm.dbg.declare(metadata ptr %6, metadata !269, metadata !DIExpression()), !dbg !294
  call void @llvm.lifetime.start.p0(i64 32, ptr %7) #6, !dbg !295
  call void @llvm.dbg.declare(metadata ptr %7, metadata !270, metadata !DIExpression()), !dbg !296
  call void @llvm.memcpy.p0.p0.i64(ptr align 16 %7, ptr align 16 @__const._Z17calc_neighborhoodiiPA80_A120_i.arr_movement_x, i64 32, i1 false), !dbg !296
  call void @llvm.lifetime.start.p0(i64 32, ptr %8) #6, !dbg !297
  call void @llvm.dbg.declare(metadata ptr %8, metadata !274, metadata !DIExpression()), !dbg !298
  call void @llvm.memcpy.p0.p0.i64(ptr align 16 %8, ptr align 16 @__const._Z17calc_neighborhoodiiPA80_A120_i.arr_movement_y, i64 32, i1 false), !dbg !298
  call void @llvm.lifetime.start.p0(i64 4, ptr %9) #6, !dbg !299
  call void @llvm.dbg.declare(metadata ptr %9, metadata !275, metadata !DIExpression()), !dbg !300
  store i32 32, ptr %9, align 4, !dbg !300, !tbaa !286
  call void @llvm.lifetime.start.p0(i64 4, ptr %10) #6, !dbg !301
  call void @llvm.dbg.declare(metadata ptr %10, metadata !276, metadata !DIExpression()), !dbg !302
  call void @llvm.lifetime.start.p0(i64 4, ptr %11) #6, !dbg !301
  call void @llvm.dbg.declare(metadata ptr %11, metadata !277, metadata !DIExpression()), !dbg !303
  call void @llvm.lifetime.start.p0(i64 4, ptr %12) #6, !dbg !304
  call void @llvm.dbg.declare(metadata ptr %12, metadata !278, metadata !DIExpression()), !dbg !305
  store i32 0, ptr %12, align 4, !dbg !305, !tbaa !286
  call void @llvm.lifetime.start.p0(i64 4, ptr %13) #6, !dbg !306
  call void @llvm.dbg.declare(metadata ptr %13, metadata !279, metadata !DIExpression()), !dbg !307
  store i32 0, ptr %13, align 4, !dbg !307, !tbaa !286
  br label %17, !dbg !306

17:                                               ; preds = %65, %3
  %18 = load i32, ptr %13, align 4, !dbg !308, !tbaa !286
  %19 = load i32, ptr %9, align 4, !dbg !309, !tbaa !286
  %20 = icmp slt i32 %18, %19, !dbg !310
  br i1 %20, label %22, label %21, !dbg !311

21:                                               ; preds = %17
  call void @llvm.lifetime.end.p0(i64 4, ptr %13) #6, !dbg !312
  br label %68

22:                                               ; preds = %17
  call void @llvm.lifetime.start.p0(i64 4, ptr %14) #6, !dbg !313
  call void @llvm.dbg.declare(metadata ptr %14, metadata !281, metadata !DIExpression()), !dbg !314
  %23 = load i32, ptr %4, align 4, !dbg !315, !tbaa !286
  %24 = load i32, ptr %13, align 4, !dbg !316, !tbaa !286
  %25 = sext i32 %24 to i64, !dbg !317
  %26 = getelementptr inbounds [8 x i32], ptr %7, i64 0, i64 %25, !dbg !317
  %27 = load i32, ptr %26, align 4, !dbg !317, !tbaa !286
  %28 = add nsw i32 %23, %27, !dbg !318
  store i32 %28, ptr %14, align 4, !dbg !314, !tbaa !286
  call void @llvm.lifetime.start.p0(i64 4, ptr %15) #6, !dbg !319
  call void @llvm.dbg.declare(metadata ptr %15, metadata !284, metadata !DIExpression()), !dbg !320
  %29 = load i32, ptr %5, align 4, !dbg !321, !tbaa !286
  %30 = load i32, ptr %13, align 4, !dbg !322, !tbaa !286
  %31 = sext i32 %30 to i64, !dbg !323
  %32 = getelementptr inbounds [8 x i32], ptr %8, i64 0, i64 %31, !dbg !323
  %33 = load i32, ptr %32, align 4, !dbg !323, !tbaa !286
  %34 = add nsw i32 %29, %33, !dbg !324
  store i32 %34, ptr %15, align 4, !dbg !320, !tbaa !286
  call void @llvm.lifetime.start.p0(i64 4, ptr %16) #6, !dbg !325
  call void @llvm.dbg.declare(metadata ptr %16, metadata !285, metadata !DIExpression()), !dbg !326
  %35 = load i32, ptr %14, align 4, !dbg !327, !tbaa !286
  %36 = icmp sge i32 %35, 0, !dbg !328
  br i1 %36, label %37, label %46, !dbg !329

37:                                               ; preds = %22
  %38 = load i32, ptr %15, align 4, !dbg !330, !tbaa !286
  %39 = icmp sge i32 %38, 0, !dbg !331
  br i1 %39, label %40, label %46, !dbg !332

40:                                               ; preds = %37
  %41 = load i32, ptr %14, align 4, !dbg !333, !tbaa !286
  %42 = icmp slt i32 %41, 80, !dbg !334
  br i1 %42, label %43, label %46, !dbg !335

43:                                               ; preds = %40
  %44 = load i32, ptr %15, align 4, !dbg !336, !tbaa !286
  %45 = icmp slt i32 %44, 120, !dbg !337
  br label %46

46:                                               ; preds = %43, %40, %37, %22
  %47 = phi i1 [ false, %40 ], [ false, %37 ], [ false, %22 ], [ %45, %43 ], !dbg !338
  %48 = zext i1 %47 to i32, !dbg !339
  store i32 %48, ptr %16, align 4, !dbg !326, !tbaa !286
  %49 = load i32, ptr %16, align 4, !dbg !340, !tbaa !286
  %50 = icmp ne i32 %49, 0, !dbg !340
  br i1 %50, label %51, label %64, !dbg !342

51:                                               ; preds = %46
  %52 = load ptr, ptr %6, align 8, !dbg !343, !tbaa !292
  %53 = load i32, ptr %14, align 4, !dbg !344, !tbaa !286
  %54 = sext i32 %53 to i64, !dbg !345
  %55 = getelementptr inbounds [80 x [120 x i32]], ptr %52, i64 0, i64 %54, !dbg !345
  %56 = load i32, ptr %15, align 4, !dbg !346, !tbaa !286
  %57 = sext i32 %56 to i64, !dbg !345
  %58 = getelementptr inbounds [120 x i32], ptr %55, i64 0, i64 %57, !dbg !345
  %59 = load i32, ptr %58, align 4, !dbg !345, !tbaa !286
  %60 = icmp eq i32 %59, 1, !dbg !347
  br i1 %60, label %61, label %64, !dbg !348

61:                                               ; preds = %51
  %62 = load i32, ptr %12, align 4, !dbg !349, !tbaa !286
  %63 = add nsw i32 %62, 1, !dbg !349
  store i32 %63, ptr %12, align 4, !dbg !349, !tbaa !286
  br label %64, !dbg !351

64:                                               ; preds = %61, %51, %46
  call void @llvm.lifetime.end.p0(i64 4, ptr %16) #6, !dbg !352
  call void @llvm.lifetime.end.p0(i64 4, ptr %15) #6, !dbg !352
  call void @llvm.lifetime.end.p0(i64 4, ptr %14) #6, !dbg !352
  br label %65, !dbg !353

65:                                               ; preds = %64
  %66 = load i32, ptr %13, align 4, !dbg !354, !tbaa !286
  %67 = add nsw i32 %66, 1, !dbg !354
  store i32 %67, ptr %13, align 4, !dbg !354, !tbaa !286
  br label %17, !dbg !312, !llvm.loop !355

68:                                               ; preds = %21
  %69 = load i32, ptr %12, align 4, !dbg !358, !tbaa !286
  call void @llvm.lifetime.end.p0(i64 4, ptr %12) #6, !dbg !359
  call void @llvm.lifetime.end.p0(i64 4, ptr %11) #6, !dbg !359
  call void @llvm.lifetime.end.p0(i64 4, ptr %10) #6, !dbg !359
  call void @llvm.lifetime.end.p0(i64 4, ptr %9) #6, !dbg !359
  call void @llvm.lifetime.end.p0(i64 32, ptr %8) #6, !dbg !359
  call void @llvm.lifetime.end.p0(i64 32, ptr %7) #6, !dbg !359
  ret i32 %69, !dbg !360
}

; Function Attrs: nocallback nofree nosync nounwind readnone speculatable willreturn
declare void @llvm.dbg.declare(metadata, metadata, metadata) #1

; Function Attrs: argmemonly nocallback nofree nosync nounwind willreturn
declare void @llvm.lifetime.start.p0(i64 immarg, ptr nocapture) #2

; Function Attrs: argmemonly nocallback nofree nounwind willreturn
declare void @llvm.memcpy.p0.p0.i64(ptr noalias nocapture writeonly, ptr noalias nocapture readonly, i64, i1 immarg) #3

; Function Attrs: argmemonly nocallback nofree nosync nounwind willreturn
declare void @llvm.lifetime.end.p0(i64 immarg, ptr nocapture) #2

; Function Attrs: mustprogress nounwind uwtable
define dso_local void @_Z9fill_nextPA80_A120_iS1_(ptr noundef %0, ptr noundef %1) #0 !dbg !361 {
  %3 = alloca ptr, align 8
  %4 = alloca ptr, align 8
  %5 = alloca i32, align 4
  %6 = alloca i32, align 4
  %7 = alloca i32, align 4
  %8 = alloca i32, align 4
  %9 = alloca i32, align 4
  %10 = alloca i32, align 4
  %11 = alloca i32, align 4
  store ptr %0, ptr %3, align 8, !tbaa !292
  call void @llvm.dbg.declare(metadata ptr %3, metadata !365, metadata !DIExpression()), !dbg !383
  store ptr %1, ptr %4, align 8, !tbaa !292
  call void @llvm.dbg.declare(metadata ptr %4, metadata !366, metadata !DIExpression()), !dbg !384
  call void @llvm.lifetime.start.p0(i64 4, ptr %5) #6, !dbg !385
  call void @llvm.dbg.declare(metadata ptr %5, metadata !367, metadata !DIExpression()), !dbg !386
  call void @llvm.lifetime.start.p0(i64 4, ptr %6) #6, !dbg !387
  call void @llvm.dbg.declare(metadata ptr %6, metadata !368, metadata !DIExpression()), !dbg !388
  store i32 0, ptr %6, align 4, !dbg !388, !tbaa !286
  br label %12, !dbg !387

12:                                               ; preds = %59, %2
  %13 = load i32, ptr %6, align 4, !dbg !389, !tbaa !286
  %14 = icmp slt i32 %13, 80, !dbg !390
  br i1 %14, label %16, label %15, !dbg !391

15:                                               ; preds = %12
  store i32 2, ptr %7, align 4
  call void @llvm.lifetime.end.p0(i64 4, ptr %6) #6, !dbg !392
  br label %62

16:                                               ; preds = %12
  call void @llvm.lifetime.start.p0(i64 4, ptr %8) #6, !dbg !393
  call void @llvm.dbg.declare(metadata ptr %8, metadata !370, metadata !DIExpression()), !dbg !394
  store i32 0, ptr %8, align 4, !dbg !394, !tbaa !286
  br label %17, !dbg !393

17:                                               ; preds = %55, %16
  %18 = load i32, ptr %8, align 4, !dbg !395, !tbaa !286
  %19 = icmp slt i32 %18, 120, !dbg !396
  br i1 %19, label %21, label %20, !dbg !397

20:                                               ; preds = %17
  store i32 5, ptr %7, align 4
  call void @llvm.lifetime.end.p0(i64 4, ptr %8) #6, !dbg !398
  br label %58

21:                                               ; preds = %17
  %22 = load i32, ptr %6, align 4, !dbg !399, !tbaa !286
  %23 = load i32, ptr %8, align 4, !dbg !400, !tbaa !286
  %24 = load ptr, ptr %3, align 8, !dbg !401, !tbaa !292
  %25 = call noundef i32 @_Z17calc_neighborhoodiiPA80_A120_i(i32 noundef %22, i32 noundef %23, ptr noundef %24), !dbg !402
  store i32 %25, ptr %5, align 4, !dbg !403, !tbaa !286
  call void @llvm.lifetime.start.p0(i64 4, ptr %9) #6, !dbg !404
  call void @llvm.dbg.declare(metadata ptr %9, metadata !374, metadata !DIExpression()), !dbg !405
  %26 = load i32, ptr %5, align 4, !dbg !406, !tbaa !286
  %27 = icmp slt i32 %26, 2, !dbg !407
  br i1 %27, label %31, label %28, !dbg !408

28:                                               ; preds = %21
  %29 = load i32, ptr %5, align 4, !dbg !409, !tbaa !286
  %30 = icmp sgt i32 %29, 3, !dbg !410
  br label %31, !dbg !408

31:                                               ; preds = %28, %21
  %32 = phi i1 [ true, %21 ], [ %30, %28 ]
  %33 = zext i1 %32 to i32, !dbg !406
  store i32 %33, ptr %9, align 4, !dbg !405, !tbaa !286
  %34 = load i32, ptr %9, align 4, !dbg !411, !tbaa !286
  %35 = icmp sgt i32 %34, 0, !dbg !413
  br i1 %35, label %36, label %44, !dbg !414

36:                                               ; preds = %31
  %37 = load ptr, ptr %4, align 8, !dbg !415, !tbaa !292
  %38 = load i32, ptr %6, align 4, !dbg !417, !tbaa !286
  %39 = sext i32 %38 to i64, !dbg !418
  %40 = getelementptr inbounds [80 x [120 x i32]], ptr %37, i64 0, i64 %39, !dbg !418
  %41 = load i32, ptr %8, align 4, !dbg !419, !tbaa !286
  %42 = sext i32 %41 to i64, !dbg !418
  %43 = getelementptr inbounds [120 x i32], ptr %40, i64 0, i64 %42, !dbg !418
  store i32 0, ptr %43, align 4, !dbg !420, !tbaa !286
  store i32 7, ptr %7, align 4
  br label %52, !dbg !421

44:                                               ; preds = %31
  %45 = load ptr, ptr %4, align 8, !dbg !422, !tbaa !292
  %46 = load i32, ptr %6, align 4, !dbg !423, !tbaa !286
  %47 = sext i32 %46 to i64, !dbg !424
  %48 = getelementptr inbounds [80 x [120 x i32]], ptr %45, i64 0, i64 %47, !dbg !424
  %49 = load i32, ptr %8, align 4, !dbg !425, !tbaa !286
  %50 = sext i32 %49 to i64, !dbg !424
  %51 = getelementptr inbounds [120 x i32], ptr %48, i64 0, i64 %50, !dbg !424
  store i32 1, ptr %51, align 4, !dbg !426, !tbaa !286
  store i32 0, ptr %7, align 4, !dbg !427
  br label %52, !dbg !427

52:                                               ; preds = %44, %36
  call void @llvm.lifetime.end.p0(i64 4, ptr %9) #6, !dbg !427
  %53 = load i32, ptr %7, align 4
  switch i32 %53, label %96 [
    i32 0, label %54
    i32 7, label %55
  ]

54:                                               ; preds = %52
  br label %55, !dbg !428

55:                                               ; preds = %54, %52
  %56 = load i32, ptr %8, align 4, !dbg !429, !tbaa !286
  %57 = add nsw i32 %56, 1, !dbg !429
  store i32 %57, ptr %8, align 4, !dbg !429, !tbaa !286
  br label %17, !dbg !398, !llvm.loop !430

58:                                               ; preds = %20
  br label %59, !dbg !432

59:                                               ; preds = %58
  %60 = load i32, ptr %6, align 4, !dbg !433, !tbaa !286
  %61 = add nsw i32 %60, 1, !dbg !433
  store i32 %61, ptr %6, align 4, !dbg !433, !tbaa !286
  br label %12, !dbg !392, !llvm.loop !434

62:                                               ; preds = %15
  call void @llvm.lifetime.start.p0(i64 4, ptr %10) #6, !dbg !436
  call void @llvm.dbg.declare(metadata ptr %10, metadata !377, metadata !DIExpression()), !dbg !437
  store i32 0, ptr %10, align 4, !dbg !437, !tbaa !286
  br label %63, !dbg !436

63:                                               ; preds = %92, %62
  %64 = load i32, ptr %10, align 4, !dbg !438, !tbaa !286
  %65 = icmp slt i32 %64, 80, !dbg !439
  br i1 %65, label %67, label %66, !dbg !440

66:                                               ; preds = %63
  store i32 8, ptr %7, align 4
  call void @llvm.lifetime.end.p0(i64 4, ptr %10) #6, !dbg !441
  br label %95

67:                                               ; preds = %63
  call void @llvm.lifetime.start.p0(i64 4, ptr %11) #6, !dbg !442
  call void @llvm.dbg.declare(metadata ptr %11, metadata !379, metadata !DIExpression()), !dbg !443
  store i32 0, ptr %11, align 4, !dbg !443, !tbaa !286
  br label %68, !dbg !442

68:                                               ; preds = %88, %67
  %69 = load i32, ptr %11, align 4, !dbg !444, !tbaa !286
  %70 = icmp slt i32 %69, 120, !dbg !446
  br i1 %70, label %72, label %71, !dbg !447

71:                                               ; preds = %68
  store i32 11, ptr %7, align 4
  call void @llvm.lifetime.end.p0(i64 4, ptr %11) #6, !dbg !448
  br label %91

72:                                               ; preds = %68
  %73 = load ptr, ptr %4, align 8, !dbg !449, !tbaa !292
  %74 = load i32, ptr %10, align 4, !dbg !451, !tbaa !286
  %75 = sext i32 %74 to i64, !dbg !452
  %76 = getelementptr inbounds [80 x [120 x i32]], ptr %73, i64 0, i64 %75, !dbg !452
  %77 = load i32, ptr %11, align 4, !dbg !453, !tbaa !286
  %78 = sext i32 %77 to i64, !dbg !452
  %79 = getelementptr inbounds [120 x i32], ptr %76, i64 0, i64 %78, !dbg !452
  %80 = load i32, ptr %79, align 4, !dbg !452, !tbaa !286
  %81 = load ptr, ptr %3, align 8, !dbg !454, !tbaa !292
  %82 = load i32, ptr %10, align 4, !dbg !455, !tbaa !286
  %83 = sext i32 %82 to i64, !dbg !456
  %84 = getelementptr inbounds [80 x [120 x i32]], ptr %81, i64 0, i64 %83, !dbg !456
  %85 = load i32, ptr %11, align 4, !dbg !457, !tbaa !286
  %86 = sext i32 %85 to i64, !dbg !456
  %87 = getelementptr inbounds [120 x i32], ptr %84, i64 0, i64 %86, !dbg !456
  store i32 %80, ptr %87, align 4, !dbg !458, !tbaa !286
  br label %88, !dbg !459

88:                                               ; preds = %72
  %89 = load i32, ptr %11, align 4, !dbg !460, !tbaa !286
  %90 = add nsw i32 %89, 1, !dbg !460
  store i32 %90, ptr %11, align 4, !dbg !460, !tbaa !286
  br label %68, !dbg !448, !llvm.loop !461

91:                                               ; preds = %71
  br label %92, !dbg !463

92:                                               ; preds = %91
  %93 = load i32, ptr %10, align 4, !dbg !464, !tbaa !286
  %94 = add nsw i32 %93, 1, !dbg !464
  store i32 %94, ptr %10, align 4, !dbg !464, !tbaa !286
  br label %63, !dbg !441, !llvm.loop !465

95:                                               ; preds = %66
  call void @llvm.lifetime.end.p0(i64 4, ptr %5) #6, !dbg !467
  ret void, !dbg !467

96:                                               ; preds = %52
  unreachable
}

; Function Attrs: mustprogress uwtable
define dso_local void @_Z11printSquarePA80_A120_iii(ptr noundef %0, i32 noundef %1, i32 noundef %2) #4 !dbg !468 {
  %4 = alloca ptr, align 8
  %5 = alloca i32, align 4
  %6 = alloca i32, align 4
  %7 = alloca i32, align 4
  %8 = alloca i32, align 4
  %9 = alloca i32, align 4
  %10 = alloca i32, align 4
  %11 = alloca i32, align 4
  %12 = alloca i32, align 4
  %13 = alloca i32, align 4
  store ptr %0, ptr %4, align 8, !tbaa !292
  call void @llvm.dbg.declare(metadata ptr %4, metadata !472, metadata !DIExpression()), !dbg !491
  store i32 %1, ptr %5, align 4, !tbaa !286
  call void @llvm.dbg.declare(metadata ptr %5, metadata !473, metadata !DIExpression()), !dbg !492
  store i32 %2, ptr %6, align 4, !tbaa !286
  call void @llvm.dbg.declare(metadata ptr %6, metadata !474, metadata !DIExpression()), !dbg !493
  call void @llvm.lifetime.start.p0(i64 4, ptr %7) #6, !dbg !494
  call void @llvm.dbg.declare(metadata ptr %7, metadata !475, metadata !DIExpression()), !dbg !495
  store i32 0, ptr %7, align 4, !dbg !495, !tbaa !286
  call void @llvm.lifetime.start.p0(i64 4, ptr %8) #6, !dbg !496
  call void @llvm.dbg.declare(metadata ptr %8, metadata !476, metadata !DIExpression()), !dbg !497
  store i32 10040012, ptr %8, align 4, !dbg !497, !tbaa !286
  %14 = load ptr, ptr %4, align 8, !dbg !498, !tbaa !292
  %15 = load i32, ptr %5, align 4, !dbg !499, !tbaa !286
  %16 = sext i32 %15 to i64, !dbg !500
  %17 = getelementptr inbounds [80 x [120 x i32]], ptr %14, i64 0, i64 %16, !dbg !500
  %18 = load i32, ptr %6, align 4, !dbg !501, !tbaa !286
  %19 = sext i32 %18 to i64, !dbg !500
  %20 = getelementptr inbounds [120 x i32], ptr %17, i64 0, i64 %19, !dbg !500
  %21 = load i32, ptr %20, align 4, !dbg !500, !tbaa !286
  %22 = icmp eq i32 %21, 1, !dbg !502
  br i1 %22, label %23, label %51, !dbg !503

23:                                               ; preds = %3
  call void @llvm.lifetime.start.p0(i64 4, ptr %9) #6, !dbg !504
  call void @llvm.dbg.declare(metadata ptr %9, metadata !477, metadata !DIExpression()), !dbg !505
  store i32 0, ptr %9, align 4, !dbg !505, !tbaa !286
  br label %24, !dbg !504

24:                                               ; preds = %47, %23
  %25 = load i32, ptr %9, align 4, !dbg !506, !tbaa !286
  %26 = icmp slt i32 %25, 10, !dbg !507
  br i1 %26, label %28, label %27, !dbg !508

27:                                               ; preds = %24
  store i32 2, ptr %10, align 4
  call void @llvm.lifetime.end.p0(i64 4, ptr %9) #6, !dbg !509
  br label %50

28:                                               ; preds = %24
  call void @llvm.lifetime.start.p0(i64 4, ptr %11) #6, !dbg !510
  call void @llvm.dbg.declare(metadata ptr %11, metadata !481, metadata !DIExpression()), !dbg !511
  store i32 0, ptr %11, align 4, !dbg !511, !tbaa !286
  br label %29, !dbg !510

29:                                               ; preds = %43, %28
  %30 = load i32, ptr %11, align 4, !dbg !512, !tbaa !286
  %31 = icmp slt i32 %30, 10, !dbg !514
  br i1 %31, label %33, label %32, !dbg !515

32:                                               ; preds = %29
  store i32 5, ptr %10, align 4
  call void @llvm.lifetime.end.p0(i64 4, ptr %11) #6, !dbg !516
  br label %46

33:                                               ; preds = %29
  %34 = load i32, ptr %5, align 4, !dbg !517, !tbaa !286
  %35 = mul nsw i32 %34, 10, !dbg !519
  %36 = load i32, ptr %9, align 4, !dbg !520, !tbaa !286
  %37 = add nsw i32 %35, %36, !dbg !521
  %38 = load i32, ptr %6, align 4, !dbg !522, !tbaa !286
  %39 = mul nsw i32 %38, 10, !dbg !523
  %40 = load i32, ptr %11, align 4, !dbg !524, !tbaa !286
  %41 = add nsw i32 %39, %40, !dbg !525
  %42 = load i32, ptr %8, align 4, !dbg !526, !tbaa !286
  call void @_Z11simPutPixeliii(i32 noundef %37, i32 noundef %41, i32 noundef %42), !dbg !527
  br label %43, !dbg !528

43:                                               ; preds = %33
  %44 = load i32, ptr %11, align 4, !dbg !529, !tbaa !286
  %45 = add nsw i32 %44, 1, !dbg !529
  store i32 %45, ptr %11, align 4, !dbg !529, !tbaa !286
  br label %29, !dbg !516, !llvm.loop !530

46:                                               ; preds = %32
  br label %47, !dbg !532

47:                                               ; preds = %46
  %48 = load i32, ptr %9, align 4, !dbg !533, !tbaa !286
  %49 = add nsw i32 %48, 1, !dbg !533
  store i32 %49, ptr %9, align 4, !dbg !533, !tbaa !286
  br label %24, !dbg !509, !llvm.loop !534

50:                                               ; preds = %27
  store i32 1, ptr %10, align 4
  br label %79, !dbg !536

51:                                               ; preds = %3
  call void @llvm.lifetime.start.p0(i64 4, ptr %12) #6, !dbg !537
  call void @llvm.dbg.declare(metadata ptr %12, metadata !485, metadata !DIExpression()), !dbg !538
  store i32 0, ptr %12, align 4, !dbg !538, !tbaa !286
  br label %52, !dbg !537

52:                                               ; preds = %75, %51
  %53 = load i32, ptr %12, align 4, !dbg !539, !tbaa !286
  %54 = icmp slt i32 %53, 10, !dbg !540
  br i1 %54, label %56, label %55, !dbg !541

55:                                               ; preds = %52
  store i32 8, ptr %10, align 4
  call void @llvm.lifetime.end.p0(i64 4, ptr %12) #6, !dbg !542
  br label %78

56:                                               ; preds = %52
  call void @llvm.lifetime.start.p0(i64 4, ptr %13) #6, !dbg !543
  call void @llvm.dbg.declare(metadata ptr %13, metadata !487, metadata !DIExpression()), !dbg !544
  store i32 0, ptr %13, align 4, !dbg !544, !tbaa !286
  br label %57, !dbg !543

57:                                               ; preds = %71, %56
  %58 = load i32, ptr %13, align 4, !dbg !545, !tbaa !286
  %59 = icmp slt i32 %58, 10, !dbg !547
  br i1 %59, label %61, label %60, !dbg !548

60:                                               ; preds = %57
  store i32 11, ptr %10, align 4
  call void @llvm.lifetime.end.p0(i64 4, ptr %13) #6, !dbg !549
  br label %74

61:                                               ; preds = %57
  %62 = load i32, ptr %5, align 4, !dbg !550, !tbaa !286
  %63 = mul nsw i32 %62, 10, !dbg !552
  %64 = load i32, ptr %12, align 4, !dbg !553, !tbaa !286
  %65 = add nsw i32 %63, %64, !dbg !554
  %66 = load i32, ptr %6, align 4, !dbg !555, !tbaa !286
  %67 = mul nsw i32 %66, 10, !dbg !556
  %68 = load i32, ptr %13, align 4, !dbg !557, !tbaa !286
  %69 = add nsw i32 %67, %68, !dbg !558
  %70 = load i32, ptr %7, align 4, !dbg !559, !tbaa !286
  call void @_Z11simPutPixeliii(i32 noundef %65, i32 noundef %69, i32 noundef %70), !dbg !560
  br label %71, !dbg !561

71:                                               ; preds = %61
  %72 = load i32, ptr %13, align 4, !dbg !562, !tbaa !286
  %73 = add nsw i32 %72, 1, !dbg !562
  store i32 %73, ptr %13, align 4, !dbg !562, !tbaa !286
  br label %57, !dbg !549, !llvm.loop !563

74:                                               ; preds = %60
  br label %75, !dbg !565

75:                                               ; preds = %74
  %76 = load i32, ptr %12, align 4, !dbg !566, !tbaa !286
  %77 = add nsw i32 %76, 1, !dbg !566
  store i32 %77, ptr %12, align 4, !dbg !566, !tbaa !286
  br label %52, !dbg !542, !llvm.loop !567

78:                                               ; preds = %55
  store i32 0, ptr %10, align 4, !dbg !569
  br label %79, !dbg !569

79:                                               ; preds = %78, %50
  call void @llvm.lifetime.end.p0(i64 4, ptr %8) #6, !dbg !569
  call void @llvm.lifetime.end.p0(i64 4, ptr %7) #6, !dbg !569
  %80 = load i32, ptr %10, align 4
  switch i32 %80, label %82 [
    i32 0, label %81
    i32 1, label %81
  ]

81:                                               ; preds = %79, %79
  ret void, !dbg !569

82:                                               ; preds = %79
  unreachable
}

declare !dbg !570 void @_Z11simPutPixeliii(i32 noundef, i32 noundef, i32 noundef) #5

; Function Attrs: mustprogress uwtable
define dso_local void @_Z3appv() #4 !dbg !574 {
  %1 = alloca [80 x [120 x i32]], align 16
  %2 = alloca [80 x [120 x i32]], align 16
  %3 = alloca i32, align 4
  %4 = alloca i32, align 4
  %5 = alloca i32, align 4
  %6 = alloca i32, align 4
  %7 = alloca i32, align 4
  %8 = alloca i32, align 4
  %9 = alloca i32, align 4
  %10 = alloca i32, align 4
  call void @llvm.lifetime.start.p0(i64 38400, ptr %1) #6, !dbg !598
  call void @llvm.dbg.declare(metadata ptr %1, metadata !576, metadata !DIExpression()), !dbg !599
  call void @llvm.lifetime.start.p0(i64 38400, ptr %2) #6, !dbg !600
  call void @llvm.dbg.declare(metadata ptr %2, metadata !577, metadata !DIExpression()), !dbg !601
  call void @llvm.lifetime.start.p0(i64 4, ptr %3) #6, !dbg !602
  call void @llvm.dbg.declare(metadata ptr %3, metadata !578, metadata !DIExpression()), !dbg !603
  store i32 100, ptr %3, align 4, !dbg !603, !tbaa !286
  call void @llvm.lifetime.start.p0(i64 4, ptr %4) #6, !dbg !604
  call void @llvm.dbg.declare(metadata ptr %4, metadata !579, metadata !DIExpression()), !dbg !605
  store i32 0, ptr %4, align 4, !dbg !605, !tbaa !286
  br label %11, !dbg !604

11:                                               ; preds = %47, %0
  %12 = load i32, ptr %4, align 4, !dbg !606, !tbaa !286
  %13 = icmp slt i32 %12, 80, !dbg !607
  br i1 %13, label %15, label %14, !dbg !608

14:                                               ; preds = %11
  store i32 2, ptr %5, align 4
  call void @llvm.lifetime.end.p0(i64 4, ptr %4) #6, !dbg !609
  br label %50

15:                                               ; preds = %11
  call void @llvm.lifetime.start.p0(i64 4, ptr %6) #6, !dbg !610
  call void @llvm.dbg.declare(metadata ptr %6, metadata !581, metadata !DIExpression()), !dbg !611
  store i32 0, ptr %6, align 4, !dbg !611, !tbaa !286
  br label %16, !dbg !610

16:                                               ; preds = %43, %15
  %17 = load i32, ptr %6, align 4, !dbg !612, !tbaa !286
  %18 = icmp slt i32 %17, 120, !dbg !613
  br i1 %18, label %20, label %19, !dbg !614

19:                                               ; preds = %16
  store i32 5, ptr %5, align 4
  call void @llvm.lifetime.end.p0(i64 4, ptr %6) #6, !dbg !615
  br label %46

20:                                               ; preds = %16
  call void @llvm.lifetime.start.p0(i64 4, ptr %7) #6, !dbg !616
  call void @llvm.dbg.declare(metadata ptr %7, metadata !585, metadata !DIExpression()), !dbg !617
  %21 = call noundef i32 @_Z7simRandv(), !dbg !618
  %22 = load i32, ptr %3, align 4, !dbg !619, !tbaa !286
  %23 = srem i32 %21, %22, !dbg !620
  store i32 %23, ptr %7, align 4, !dbg !617, !tbaa !286
  %24 = load i32, ptr %7, align 4, !dbg !621, !tbaa !286
  %25 = icmp slt i32 %24, 1, !dbg !623
  br i1 %25, label %26, label %33, !dbg !624

26:                                               ; preds = %20
  %27 = load i32, ptr %4, align 4, !dbg !625, !tbaa !286
  %28 = sext i32 %27 to i64, !dbg !627
  %29 = getelementptr inbounds [80 x [120 x i32]], ptr %1, i64 0, i64 %28, !dbg !627
  %30 = load i32, ptr %6, align 4, !dbg !628, !tbaa !286
  %31 = sext i32 %30 to i64, !dbg !627
  %32 = getelementptr inbounds [120 x i32], ptr %29, i64 0, i64 %31, !dbg !627
  store i32 1, ptr %32, align 4, !dbg !629, !tbaa !286
  store i32 7, ptr %5, align 4
  br label %40, !dbg !630

33:                                               ; preds = %20
  %34 = load i32, ptr %4, align 4, !dbg !631, !tbaa !286
  %35 = sext i32 %34 to i64, !dbg !632
  %36 = getelementptr inbounds [80 x [120 x i32]], ptr %1, i64 0, i64 %35, !dbg !632
  %37 = load i32, ptr %6, align 4, !dbg !633, !tbaa !286
  %38 = sext i32 %37 to i64, !dbg !632
  %39 = getelementptr inbounds [120 x i32], ptr %36, i64 0, i64 %38, !dbg !632
  store i32 0, ptr %39, align 4, !dbg !634, !tbaa !286
  store i32 0, ptr %5, align 4, !dbg !635
  br label %40, !dbg !635

40:                                               ; preds = %33, %26
  call void @llvm.lifetime.end.p0(i64 4, ptr %7) #6, !dbg !635
  %41 = load i32, ptr %5, align 4
  switch i32 %41, label %80 [
    i32 0, label %42
    i32 7, label %43
  ]

42:                                               ; preds = %40
  br label %43, !dbg !636

43:                                               ; preds = %42, %40
  %44 = load i32, ptr %6, align 4, !dbg !637, !tbaa !286
  %45 = add nsw i32 %44, 1, !dbg !637
  store i32 %45, ptr %6, align 4, !dbg !637, !tbaa !286
  br label %16, !dbg !615, !llvm.loop !638

46:                                               ; preds = %19
  br label %47, !dbg !640

47:                                               ; preds = %46
  %48 = load i32, ptr %4, align 4, !dbg !641, !tbaa !286
  %49 = add nsw i32 %48, 1, !dbg !641
  store i32 %49, ptr %4, align 4, !dbg !641, !tbaa !286
  br label %11, !dbg !609, !llvm.loop !642

50:                                               ; preds = %14
  call void @llvm.lifetime.start.p0(i64 4, ptr %8) #6, !dbg !644
  call void @llvm.dbg.declare(metadata ptr %8, metadata !588, metadata !DIExpression()), !dbg !645
  store i32 0, ptr %8, align 4, !dbg !645, !tbaa !286
  br label %51, !dbg !644

51:                                               ; preds = %76, %50
  %52 = load i32, ptr %8, align 4, !dbg !646, !tbaa !286
  %53 = icmp slt i32 %52, 1000, !dbg !647
  br i1 %53, label %55, label %54, !dbg !648

54:                                               ; preds = %51
  store i32 8, ptr %5, align 4
  call void @llvm.lifetime.end.p0(i64 4, ptr %8) #6, !dbg !649
  br label %79

55:                                               ; preds = %51
  call void @llvm.lifetime.start.p0(i64 4, ptr %9) #6, !dbg !650
  call void @llvm.dbg.declare(metadata ptr %9, metadata !590, metadata !DIExpression()), !dbg !651
  store i32 0, ptr %9, align 4, !dbg !651, !tbaa !286
  br label %56, !dbg !650

56:                                               ; preds = %72, %55
  %57 = load i32, ptr %9, align 4, !dbg !652, !tbaa !286
  %58 = icmp slt i32 %57, 120, !dbg !653
  br i1 %58, label %60, label %59, !dbg !654

59:                                               ; preds = %56
  store i32 11, ptr %5, align 4
  call void @llvm.lifetime.end.p0(i64 4, ptr %9) #6, !dbg !655
  br label %75

60:                                               ; preds = %56
  call void @llvm.lifetime.start.p0(i64 4, ptr %10) #6, !dbg !656
  call void @llvm.dbg.declare(metadata ptr %10, metadata !594, metadata !DIExpression()), !dbg !657
  store i32 0, ptr %10, align 4, !dbg !657, !tbaa !286
  br label %61, !dbg !656

61:                                               ; preds = %68, %60
  %62 = load i32, ptr %10, align 4, !dbg !658, !tbaa !286
  %63 = icmp slt i32 %62, 80, !dbg !660
  br i1 %63, label %65, label %64, !dbg !661

64:                                               ; preds = %61
  store i32 14, ptr %5, align 4
  call void @llvm.lifetime.end.p0(i64 4, ptr %10) #6, !dbg !662
  br label %71

65:                                               ; preds = %61
  %66 = load i32, ptr %10, align 4, !dbg !663, !tbaa !286
  %67 = load i32, ptr %9, align 4, !dbg !665, !tbaa !286
  call void @_Z11printSquarePA80_A120_iii(ptr noundef %1, i32 noundef %66, i32 noundef %67), !dbg !666
  br label %68, !dbg !667

68:                                               ; preds = %65
  %69 = load i32, ptr %10, align 4, !dbg !668, !tbaa !286
  %70 = add nsw i32 %69, 1, !dbg !668
  store i32 %70, ptr %10, align 4, !dbg !668, !tbaa !286
  br label %61, !dbg !662, !llvm.loop !669

71:                                               ; preds = %64
  br label %72, !dbg !671

72:                                               ; preds = %71
  %73 = load i32, ptr %9, align 4, !dbg !672, !tbaa !286
  %74 = add nsw i32 %73, 1, !dbg !672
  store i32 %74, ptr %9, align 4, !dbg !672, !tbaa !286
  br label %56, !dbg !655, !llvm.loop !673

75:                                               ; preds = %59
  call void @_Z9fill_nextPA80_A120_iS1_(ptr noundef %1, ptr noundef %2), !dbg !675
  call void @_Z8simFlushv(), !dbg !676
  br label %76, !dbg !677

76:                                               ; preds = %75
  %77 = load i32, ptr %8, align 4, !dbg !678, !tbaa !286
  %78 = add nsw i32 %77, 1, !dbg !678
  store i32 %78, ptr %8, align 4, !dbg !678, !tbaa !286
  br label %51, !dbg !649, !llvm.loop !679

79:                                               ; preds = %54
  call void @llvm.lifetime.end.p0(i64 4, ptr %3) #6, !dbg !681
  call void @llvm.lifetime.end.p0(i64 38400, ptr %2) #6, !dbg !681
  call void @llvm.lifetime.end.p0(i64 38400, ptr %1) #6, !dbg !681
  ret void, !dbg !681

80:                                               ; preds = %40
  unreachable
}

declare !dbg !682 noundef i32 @_Z7simRandv() #5

declare !dbg !683 void @_Z8simFlushv() #5

attributes #0 = { mustprogress nounwind uwtable "frame-pointer"="none" "min-legal-vector-width"="0" "no-trapping-math"="true" "stack-protector-buffer-size"="8" "target-cpu"="x86-64" "target-features"="+cx8,+fxsr,+mmx,+sse,+sse2,+x87" "tune-cpu"="generic" }
attributes #1 = { nocallback nofree nosync nounwind readnone speculatable willreturn }
attributes #2 = { argmemonly nocallback nofree nosync nounwind willreturn }
attributes #3 = { argmemonly nocallback nofree nounwind willreturn }
attributes #4 = { mustprogress uwtable "frame-pointer"="none" "min-legal-vector-width"="0" "no-trapping-math"="true" "stack-protector-buffer-size"="8" "target-cpu"="x86-64" "target-features"="+cx8,+fxsr,+mmx,+sse,+sse2,+x87" "tune-cpu"="generic" }
attributes #5 = { "frame-pointer"="none" "no-trapping-math"="true" "stack-protector-buffer-size"="8" "target-cpu"="x86-64" "target-features"="+cx8,+fxsr,+mmx,+sse,+sse2,+x87" "tune-cpu"="generic" }
attributes #6 = { nounwind }

!llvm.dbg.cu = !{!0}
!llvm.module.flags = !{!250, !251, !252, !253, !254, !255}
!llvm.ident = !{!256}

!0 = distinct !DICompileUnit(language: DW_LANG_C_plus_plus_14, file: !1, producer: "clang version 15.0.0 (https://github.com/llvm/llvm-project.git 4ba6a9c9f65bbc8bd06e3652cb20fd4dfc846137)", isOptimized: true, runtimeVersion: 0, emissionKind: FullDebug, imports: !2, splitDebugInlining: false, nameTableKind: None)
!1 = !DIFile(filename: "<source>", directory: "/app")
!2 = !{!3, !11, !15, !22, !26, !31, !33, !42, !46, !50, !65, !69, !73, !77, !81, !86, !90, !94, !98, !102, !110, !114, !118, !120, !124, !128, !133, !139, !143, !147, !149, !157, !161, !169, !171, !175, !179, !183, !187, !192, !197, !202, !203, !204, !205, !207, !208, !209, !210, !211, !212, !213, !215, !216, !217, !218, !219, !220, !221, !226, !227, !228, !229, !230, !231, !232, !233, !234, !235, !236, !237, !238, !239, !240, !241, !242, !243, !244, !245, !246, !247, !248, !249}
!3 = !DIImportedEntity(tag: DW_TAG_imported_declaration, scope: !4, entity: !5, file: !10, line: 52)
!4 = !DINamespace(name: "std", scope: null)
!5 = !DISubprogram(name: "abs", scope: !6, file: !6, line: 840, type: !7, flags: DIFlagPrototyped, spFlags: DISPFlagOptimized)
!6 = !DIFile(filename: "/usr/include/stdlib.h", directory: "")
!7 = !DISubroutineType(types: !8)
!8 = !{!9, !9}
!9 = !DIBasicType(name: "int", size: 32, encoding: DW_ATE_signed)
!10 = !DIFile(filename: "/opt/compiler-explorer/gcc-12.2.0/lib/gcc/x86_64-linux-gnu/12.2.0/../../../../include/c++/12.2.0/bits/std_abs.h", directory: "")
!11 = !DIImportedEntity(tag: DW_TAG_imported_declaration, scope: !4, entity: !12, file: !14, line: 127)
!12 = !DIDerivedType(tag: DW_TAG_typedef, name: "div_t", file: !6, line: 62, baseType: !13)
!13 = !DICompositeType(tag: DW_TAG_structure_type, file: !6, line: 58, size: 64, flags: DIFlagFwdDecl, identifier: "_ZTS5div_t")
!14 = !DIFile(filename: "/opt/compiler-explorer/gcc-12.2.0/lib/gcc/x86_64-linux-gnu/12.2.0/../../../../include/c++/12.2.0/cstdlib", directory: "")
!15 = !DIImportedEntity(tag: DW_TAG_imported_declaration, scope: !4, entity: !16, file: !14, line: 128)
!16 = !DIDerivedType(tag: DW_TAG_typedef, name: "ldiv_t", file: !6, line: 70, baseType: !17)
!17 = distinct !DICompositeType(tag: DW_TAG_structure_type, file: !6, line: 66, size: 128, flags: DIFlagTypePassByValue, elements: !18, identifier: "_ZTS6ldiv_t")
!18 = !{!19, !21}
!19 = !DIDerivedType(tag: DW_TAG_member, name: "quot", scope: !17, file: !6, line: 68, baseType: !20, size: 64)
!20 = !DIBasicType(name: "long", size: 64, encoding: DW_ATE_signed)
!21 = !DIDerivedType(tag: DW_TAG_member, name: "rem", scope: !17, file: !6, line: 69, baseType: !20, size: 64, offset: 64)
!22 = !DIImportedEntity(tag: DW_TAG_imported_declaration, scope: !4, entity: !23, file: !14, line: 130)
!23 = !DISubprogram(name: "abort", scope: !6, file: !6, line: 591, type: !24, flags: DIFlagPrototyped | DIFlagNoReturn, spFlags: DISPFlagOptimized)
!24 = !DISubroutineType(types: !25)
!25 = !{null}
!26 = !DIImportedEntity(tag: DW_TAG_imported_declaration, scope: !4, entity: !27, file: !14, line: 134)
!27 = !DISubprogram(name: "atexit", scope: !6, file: !6, line: 595, type: !28, flags: DIFlagPrototyped, spFlags: DISPFlagOptimized)
!28 = !DISubroutineType(types: !29)
!29 = !{!9, !30}
!30 = !DIDerivedType(tag: DW_TAG_pointer_type, baseType: !24, size: 64)
!31 = !DIImportedEntity(tag: DW_TAG_imported_declaration, scope: !4, entity: !32, file: !14, line: 137)
!32 = !DISubprogram(name: "at_quick_exit", scope: !6, file: !6, line: 600, type: !28, flags: DIFlagPrototyped, spFlags: DISPFlagOptimized)
!33 = !DIImportedEntity(tag: DW_TAG_imported_declaration, scope: !4, entity: !34, file: !14, line: 140)
!34 = !DISubprogram(name: "atof", scope: !35, file: !35, line: 25, type: !36, flags: DIFlagPrototyped, spFlags: DISPFlagOptimized)
!35 = !DIFile(filename: "/usr/include/x86_64-linux-gnu/bits/stdlib-float.h", directory: "")
!36 = !DISubroutineType(types: !37)
!37 = !{!38, !39}
!38 = !DIBasicType(name: "double", size: 64, encoding: DW_ATE_float)
!39 = !DIDerivedType(tag: DW_TAG_pointer_type, baseType: !40, size: 64)
!40 = !DIDerivedType(tag: DW_TAG_const_type, baseType: !41)
!41 = !DIBasicType(name: "char", size: 8, encoding: DW_ATE_signed_char)
!42 = !DIImportedEntity(tag: DW_TAG_imported_declaration, scope: !4, entity: !43, file: !14, line: 141)
!43 = !DISubprogram(name: "atoi", scope: !6, file: !6, line: 361, type: !44, flags: DIFlagPrototyped, spFlags: DISPFlagOptimized)
!44 = !DISubroutineType(types: !45)
!45 = !{!9, !39}
!46 = !DIImportedEntity(tag: DW_TAG_imported_declaration, scope: !4, entity: !47, file: !14, line: 142)
!47 = !DISubprogram(name: "atol", scope: !6, file: !6, line: 366, type: !48, flags: DIFlagPrototyped, spFlags: DISPFlagOptimized)
!48 = !DISubroutineType(types: !49)
!49 = !{!20, !39}
!50 = !DIImportedEntity(tag: DW_TAG_imported_declaration, scope: !4, entity: !51, file: !14, line: 143)
!51 = !DISubprogram(name: "bsearch", scope: !52, file: !52, line: 20, type: !53, flags: DIFlagPrototyped, spFlags: DISPFlagOptimized)
!52 = !DIFile(filename: "/usr/include/x86_64-linux-gnu/bits/stdlib-bsearch.h", directory: "")
!53 = !DISubroutineType(types: !54)
!54 = !{!55, !56, !56, !58, !58, !61}
!55 = !DIDerivedType(tag: DW_TAG_pointer_type, baseType: null, size: 64)
!56 = !DIDerivedType(tag: DW_TAG_pointer_type, baseType: !57, size: 64)
!57 = !DIDerivedType(tag: DW_TAG_const_type, baseType: null)
!58 = !DIDerivedType(tag: DW_TAG_typedef, name: "size_t", file: !59, line: 46, baseType: !60)
!59 = !DIFile(filename: "/opt/compiler-explorer/clang-15.0.0/lib/clang/15.0.0/include/stddef.h", directory: "")
!60 = !DIBasicType(name: "unsigned long", size: 64, encoding: DW_ATE_unsigned)
!61 = !DIDerivedType(tag: DW_TAG_typedef, name: "__compar_fn_t", file: !6, line: 808, baseType: !62)
!62 = !DIDerivedType(tag: DW_TAG_pointer_type, baseType: !63, size: 64)
!63 = !DISubroutineType(types: !64)
!64 = !{!9, !56, !56}
!65 = !DIImportedEntity(tag: DW_TAG_imported_declaration, scope: !4, entity: !66, file: !14, line: 144)
!66 = !DISubprogram(name: "calloc", scope: !6, file: !6, line: 542, type: !67, flags: DIFlagPrototyped, spFlags: DISPFlagOptimized)
!67 = !DISubroutineType(types: !68)
!68 = !{!55, !58, !58}
!69 = !DIImportedEntity(tag: DW_TAG_imported_declaration, scope: !4, entity: !70, file: !14, line: 145)
!70 = !DISubprogram(name: "div", scope: !6, file: !6, line: 852, type: !71, flags: DIFlagPrototyped, spFlags: DISPFlagOptimized)
!71 = !DISubroutineType(types: !72)
!72 = !{!12, !9, !9}
!73 = !DIImportedEntity(tag: DW_TAG_imported_declaration, scope: !4, entity: !74, file: !14, line: 146)
!74 = !DISubprogram(name: "exit", scope: !6, file: !6, line: 617, type: !75, flags: DIFlagPrototyped | DIFlagNoReturn, spFlags: DISPFlagOptimized)
!75 = !DISubroutineType(types: !76)
!76 = !{null, !9}
!77 = !DIImportedEntity(tag: DW_TAG_imported_declaration, scope: !4, entity: !78, file: !14, line: 147)
!78 = !DISubprogram(name: "free", scope: !6, file: !6, line: 565, type: !79, flags: DIFlagPrototyped, spFlags: DISPFlagOptimized)
!79 = !DISubroutineType(types: !80)
!80 = !{null, !55}
!81 = !DIImportedEntity(tag: DW_TAG_imported_declaration, scope: !4, entity: !82, file: !14, line: 148)
!82 = !DISubprogram(name: "getenv", scope: !6, file: !6, line: 634, type: !83, flags: DIFlagPrototyped, spFlags: DISPFlagOptimized)
!83 = !DISubroutineType(types: !84)
!84 = !{!85, !39}
!85 = !DIDerivedType(tag: DW_TAG_pointer_type, baseType: !41, size: 64)
!86 = !DIImportedEntity(tag: DW_TAG_imported_declaration, scope: !4, entity: !87, file: !14, line: 149)
!87 = !DISubprogram(name: "labs", scope: !6, file: !6, line: 841, type: !88, flags: DIFlagPrototyped, spFlags: DISPFlagOptimized)
!88 = !DISubroutineType(types: !89)
!89 = !{!20, !20}
!90 = !DIImportedEntity(tag: DW_TAG_imported_declaration, scope: !4, entity: !91, file: !14, line: 150)
!91 = !DISubprogram(name: "ldiv", scope: !6, file: !6, line: 854, type: !92, flags: DIFlagPrototyped, spFlags: DISPFlagOptimized)
!92 = !DISubroutineType(types: !93)
!93 = !{!16, !20, !20}
!94 = !DIImportedEntity(tag: DW_TAG_imported_declaration, scope: !4, entity: !95, file: !14, line: 151)
!95 = !DISubprogram(name: "malloc", scope: !6, file: !6, line: 539, type: !96, flags: DIFlagPrototyped, spFlags: DISPFlagOptimized)
!96 = !DISubroutineType(types: !97)
!97 = !{!55, !58}
!98 = !DIImportedEntity(tag: DW_TAG_imported_declaration, scope: !4, entity: !99, file: !14, line: 153)
!99 = !DISubprogram(name: "mblen", scope: !6, file: !6, line: 922, type: !100, flags: DIFlagPrototyped, spFlags: DISPFlagOptimized)
!100 = !DISubroutineType(types: !101)
!101 = !{!9, !39, !58}
!102 = !DIImportedEntity(tag: DW_TAG_imported_declaration, scope: !4, entity: !103, file: !14, line: 154)
!103 = !DISubprogram(name: "mbstowcs", scope: !6, file: !6, line: 933, type: !104, flags: DIFlagPrototyped, spFlags: DISPFlagOptimized)
!104 = !DISubroutineType(types: !105)
!105 = !{!58, !106, !109, !58}
!106 = !DIDerivedType(tag: DW_TAG_restrict_type, baseType: !107)
!107 = !DIDerivedType(tag: DW_TAG_pointer_type, baseType: !108, size: 64)
!108 = !DIBasicType(name: "wchar_t", size: 32, encoding: DW_ATE_signed)
!109 = !DIDerivedType(tag: DW_TAG_restrict_type, baseType: !39)
!110 = !DIImportedEntity(tag: DW_TAG_imported_declaration, scope: !4, entity: !111, file: !14, line: 155)
!111 = !DISubprogram(name: "mbtowc", scope: !6, file: !6, line: 925, type: !112, flags: DIFlagPrototyped, spFlags: DISPFlagOptimized)
!112 = !DISubroutineType(types: !113)
!113 = !{!9, !106, !109, !58}
!114 = !DIImportedEntity(tag: DW_TAG_imported_declaration, scope: !4, entity: !115, file: !14, line: 157)
!115 = !DISubprogram(name: "qsort", scope: !6, file: !6, line: 830, type: !116, flags: DIFlagPrototyped, spFlags: DISPFlagOptimized)
!116 = !DISubroutineType(types: !117)
!117 = !{null, !55, !58, !58, !61}
!118 = !DIImportedEntity(tag: DW_TAG_imported_declaration, scope: !4, entity: !119, file: !14, line: 160)
!119 = !DISubprogram(name: "quick_exit", scope: !6, file: !6, line: 623, type: !75, flags: DIFlagPrototyped | DIFlagNoReturn, spFlags: DISPFlagOptimized)
!120 = !DIImportedEntity(tag: DW_TAG_imported_declaration, scope: !4, entity: !121, file: !14, line: 163)
!121 = !DISubprogram(name: "rand", scope: !6, file: !6, line: 453, type: !122, flags: DIFlagPrototyped, spFlags: DISPFlagOptimized)
!122 = !DISubroutineType(types: !123)
!123 = !{!9}
!124 = !DIImportedEntity(tag: DW_TAG_imported_declaration, scope: !4, entity: !125, file: !14, line: 164)
!125 = !DISubprogram(name: "realloc", scope: !6, file: !6, line: 550, type: !126, flags: DIFlagPrototyped, spFlags: DISPFlagOptimized)
!126 = !DISubroutineType(types: !127)
!127 = !{!55, !55, !58}
!128 = !DIImportedEntity(tag: DW_TAG_imported_declaration, scope: !4, entity: !129, file: !14, line: 165)
!129 = !DISubprogram(name: "srand", scope: !6, file: !6, line: 455, type: !130, flags: DIFlagPrototyped, spFlags: DISPFlagOptimized)
!130 = !DISubroutineType(types: !131)
!131 = !{null, !132}
!132 = !DIBasicType(name: "unsigned int", size: 32, encoding: DW_ATE_unsigned)
!133 = !DIImportedEntity(tag: DW_TAG_imported_declaration, scope: !4, entity: !134, file: !14, line: 166)
!134 = !DISubprogram(name: "strtod", scope: !6, file: !6, line: 117, type: !135, flags: DIFlagPrototyped, spFlags: DISPFlagOptimized)
!135 = !DISubroutineType(types: !136)
!136 = !{!38, !109, !137}
!137 = !DIDerivedType(tag: DW_TAG_restrict_type, baseType: !138)
!138 = !DIDerivedType(tag: DW_TAG_pointer_type, baseType: !85, size: 64)
!139 = !DIImportedEntity(tag: DW_TAG_imported_declaration, scope: !4, entity: !140, file: !14, line: 167)
!140 = !DISubprogram(name: "strtol", scope: !6, file: !6, line: 176, type: !141, flags: DIFlagPrototyped, spFlags: DISPFlagOptimized)
!141 = !DISubroutineType(types: !142)
!142 = !{!20, !109, !137, !9}
!143 = !DIImportedEntity(tag: DW_TAG_imported_declaration, scope: !4, entity: !144, file: !14, line: 168)
!144 = !DISubprogram(name: "strtoul", scope: !6, file: !6, line: 180, type: !145, flags: DIFlagPrototyped, spFlags: DISPFlagOptimized)
!145 = !DISubroutineType(types: !146)
!146 = !{!60, !109, !137, !9}
!147 = !DIImportedEntity(tag: DW_TAG_imported_declaration, scope: !4, entity: !148, file: !14, line: 169)
!148 = !DISubprogram(name: "system", scope: !6, file: !6, line: 784, type: !44, flags: DIFlagPrototyped, spFlags: DISPFlagOptimized)
!149 = !DIImportedEntity(tag: DW_TAG_imported_declaration, scope: !4, entity: !150, file: !14, line: 171)
!150 = !DISubprogram(name: "wcstombs", scope: !6, file: !6, line: 936, type: !151, flags: DIFlagPrototyped, spFlags: DISPFlagOptimized)
!151 = !DISubroutineType(types: !152)
!152 = !{!58, !153, !154, !58}
!153 = !DIDerivedType(tag: DW_TAG_restrict_type, baseType: !85)
!154 = !DIDerivedType(tag: DW_TAG_restrict_type, baseType: !155)
!155 = !DIDerivedType(tag: DW_TAG_pointer_type, baseType: !156, size: 64)
!156 = !DIDerivedType(tag: DW_TAG_const_type, baseType: !108)
!157 = !DIImportedEntity(tag: DW_TAG_imported_declaration, scope: !4, entity: !158, file: !14, line: 172)
!158 = !DISubprogram(name: "wctomb", scope: !6, file: !6, line: 929, type: !159, flags: DIFlagPrototyped, spFlags: DISPFlagOptimized)
!159 = !DISubroutineType(types: !160)
!160 = !{!9, !85, !108}
!161 = !DIImportedEntity(tag: DW_TAG_imported_declaration, scope: !162, entity: !163, file: !14, line: 200)
!162 = !DINamespace(name: "__gnu_cxx", scope: null)
!163 = !DIDerivedType(tag: DW_TAG_typedef, name: "lldiv_t", file: !6, line: 80, baseType: !164)
!164 = distinct !DICompositeType(tag: DW_TAG_structure_type, file: !6, line: 76, size: 128, flags: DIFlagTypePassByValue, elements: !165, identifier: "_ZTS7lldiv_t")
!165 = !{!166, !168}
!166 = !DIDerivedType(tag: DW_TAG_member, name: "quot", scope: !164, file: !6, line: 78, baseType: !167, size: 64)
!167 = !DIBasicType(name: "long long", size: 64, encoding: DW_ATE_signed)
!168 = !DIDerivedType(tag: DW_TAG_member, name: "rem", scope: !164, file: !6, line: 79, baseType: !167, size: 64, offset: 64)
!169 = !DIImportedEntity(tag: DW_TAG_imported_declaration, scope: !162, entity: !170, file: !14, line: 206)
!170 = !DISubprogram(name: "_Exit", scope: !6, file: !6, line: 629, type: !75, flags: DIFlagPrototyped | DIFlagNoReturn, spFlags: DISPFlagOptimized)
!171 = !DIImportedEntity(tag: DW_TAG_imported_declaration, scope: !162, entity: !172, file: !14, line: 210)
!172 = !DISubprogram(name: "llabs", scope: !6, file: !6, line: 844, type: !173, flags: DIFlagPrototyped, spFlags: DISPFlagOptimized)
!173 = !DISubroutineType(types: !174)
!174 = !{!167, !167}
!175 = !DIImportedEntity(tag: DW_TAG_imported_declaration, scope: !162, entity: !176, file: !14, line: 216)
!176 = !DISubprogram(name: "lldiv", scope: !6, file: !6, line: 858, type: !177, flags: DIFlagPrototyped, spFlags: DISPFlagOptimized)
!177 = !DISubroutineType(types: !178)
!178 = !{!163, !167, !167}
!179 = !DIImportedEntity(tag: DW_TAG_imported_declaration, scope: !162, entity: !180, file: !14, line: 227)
!180 = !DISubprogram(name: "atoll", scope: !6, file: !6, line: 373, type: !181, flags: DIFlagPrototyped, spFlags: DISPFlagOptimized)
!181 = !DISubroutineType(types: !182)
!182 = !{!167, !39}
!183 = !DIImportedEntity(tag: DW_TAG_imported_declaration, scope: !162, entity: !184, file: !14, line: 228)
!184 = !DISubprogram(name: "strtoll", scope: !6, file: !6, line: 200, type: !185, flags: DIFlagPrototyped, spFlags: DISPFlagOptimized)
!185 = !DISubroutineType(types: !186)
!186 = !{!167, !109, !137, !9}
!187 = !DIImportedEntity(tag: DW_TAG_imported_declaration, scope: !162, entity: !188, file: !14, line: 229)
!188 = !DISubprogram(name: "strtoull", scope: !6, file: !6, line: 205, type: !189, flags: DIFlagPrototyped, spFlags: DISPFlagOptimized)
!189 = !DISubroutineType(types: !190)
!190 = !{!191, !109, !137, !9}
!191 = !DIBasicType(name: "unsigned long long", size: 64, encoding: DW_ATE_unsigned)
!192 = !DIImportedEntity(tag: DW_TAG_imported_declaration, scope: !162, entity: !193, file: !14, line: 231)
!193 = !DISubprogram(name: "strtof", scope: !6, file: !6, line: 123, type: !194, flags: DIFlagPrototyped, spFlags: DISPFlagOptimized)
!194 = !DISubroutineType(types: !195)
!195 = !{!196, !109, !137}
!196 = !DIBasicType(name: "float", size: 32, encoding: DW_ATE_float)
!197 = !DIImportedEntity(tag: DW_TAG_imported_declaration, scope: !162, entity: !198, file: !14, line: 232)
!198 = !DISubprogram(name: "strtold", scope: !6, file: !6, line: 126, type: !199, flags: DIFlagPrototyped, spFlags: DISPFlagOptimized)
!199 = !DISubroutineType(types: !200)
!200 = !{!201, !109, !137}
!201 = !DIBasicType(name: "long double", size: 128, encoding: DW_ATE_float)
!202 = !DIImportedEntity(tag: DW_TAG_imported_declaration, scope: !4, entity: !163, file: !14, line: 240)
!203 = !DIImportedEntity(tag: DW_TAG_imported_declaration, scope: !4, entity: !170, file: !14, line: 242)
!204 = !DIImportedEntity(tag: DW_TAG_imported_declaration, scope: !4, entity: !172, file: !14, line: 244)
!205 = !DIImportedEntity(tag: DW_TAG_imported_declaration, scope: !4, entity: !206, file: !14, line: 245)
!206 = !DISubprogram(name: "div", linkageName: "_ZN9__gnu_cxx3divExx", scope: !162, file: !14, line: 213, type: !177, flags: DIFlagPrototyped, spFlags: DISPFlagOptimized)
!207 = !DIImportedEntity(tag: DW_TAG_imported_declaration, scope: !4, entity: !176, file: !14, line: 246)
!208 = !DIImportedEntity(tag: DW_TAG_imported_declaration, scope: !4, entity: !180, file: !14, line: 248)
!209 = !DIImportedEntity(tag: DW_TAG_imported_declaration, scope: !4, entity: !193, file: !14, line: 249)
!210 = !DIImportedEntity(tag: DW_TAG_imported_declaration, scope: !4, entity: !184, file: !14, line: 250)
!211 = !DIImportedEntity(tag: DW_TAG_imported_declaration, scope: !4, entity: !188, file: !14, line: 251)
!212 = !DIImportedEntity(tag: DW_TAG_imported_declaration, scope: !4, entity: !198, file: !14, line: 252)
!213 = !DIImportedEntity(tag: DW_TAG_imported_declaration, scope: !0, entity: !23, file: !214, line: 38)
!214 = !DIFile(filename: "/opt/compiler-explorer/gcc-12.2.0/lib/gcc/x86_64-linux-gnu/12.2.0/../../../../include/c++/12.2.0/stdlib.h", directory: "")
!215 = !DIImportedEntity(tag: DW_TAG_imported_declaration, scope: !0, entity: !27, file: !214, line: 39)
!216 = !DIImportedEntity(tag: DW_TAG_imported_declaration, scope: !0, entity: !74, file: !214, line: 40)
!217 = !DIImportedEntity(tag: DW_TAG_imported_declaration, scope: !0, entity: !32, file: !214, line: 43)
!218 = !DIImportedEntity(tag: DW_TAG_imported_declaration, scope: !0, entity: !119, file: !214, line: 46)
!219 = !DIImportedEntity(tag: DW_TAG_imported_declaration, scope: !0, entity: !12, file: !214, line: 51)
!220 = !DIImportedEntity(tag: DW_TAG_imported_declaration, scope: !0, entity: !16, file: !214, line: 52)
!221 = !DIImportedEntity(tag: DW_TAG_imported_declaration, scope: !0, entity: !222, file: !214, line: 54)
!222 = !DISubprogram(name: "abs", linkageName: "_ZSt3absg", scope: !4, file: !10, line: 103, type: !223, flags: DIFlagPrototyped, spFlags: DISPFlagOptimized)
!223 = !DISubroutineType(types: !224)
!224 = !{!225, !225}
!225 = !DIBasicType(name: "__float128", size: 128, encoding: DW_ATE_float)
!226 = !DIImportedEntity(tag: DW_TAG_imported_declaration, scope: !0, entity: !34, file: !214, line: 55)
!227 = !DIImportedEntity(tag: DW_TAG_imported_declaration, scope: !0, entity: !43, file: !214, line: 56)
!228 = !DIImportedEntity(tag: DW_TAG_imported_declaration, scope: !0, entity: !47, file: !214, line: 57)
!229 = !DIImportedEntity(tag: DW_TAG_imported_declaration, scope: !0, entity: !51, file: !214, line: 58)
!230 = !DIImportedEntity(tag: DW_TAG_imported_declaration, scope: !0, entity: !66, file: !214, line: 59)
!231 = !DIImportedEntity(tag: DW_TAG_imported_declaration, scope: !0, entity: !206, file: !214, line: 60)
!232 = !DIImportedEntity(tag: DW_TAG_imported_declaration, scope: !0, entity: !78, file: !214, line: 61)
!233 = !DIImportedEntity(tag: DW_TAG_imported_declaration, scope: !0, entity: !82, file: !214, line: 62)
!234 = !DIImportedEntity(tag: DW_TAG_imported_declaration, scope: !0, entity: !87, file: !214, line: 63)
!235 = !DIImportedEntity(tag: DW_TAG_imported_declaration, scope: !0, entity: !91, file: !214, line: 64)
!236 = !DIImportedEntity(tag: DW_TAG_imported_declaration, scope: !0, entity: !95, file: !214, line: 65)
!237 = !DIImportedEntity(tag: DW_TAG_imported_declaration, scope: !0, entity: !99, file: !214, line: 67)
!238 = !DIImportedEntity(tag: DW_TAG_imported_declaration, scope: !0, entity: !103, file: !214, line: 68)
!239 = !DIImportedEntity(tag: DW_TAG_imported_declaration, scope: !0, entity: !111, file: !214, line: 69)
!240 = !DIImportedEntity(tag: DW_TAG_imported_declaration, scope: !0, entity: !115, file: !214, line: 71)
!241 = !DIImportedEntity(tag: DW_TAG_imported_declaration, scope: !0, entity: !121, file: !214, line: 72)
!242 = !DIImportedEntity(tag: DW_TAG_imported_declaration, scope: !0, entity: !125, file: !214, line: 73)
!243 = !DIImportedEntity(tag: DW_TAG_imported_declaration, scope: !0, entity: !129, file: !214, line: 74)
!244 = !DIImportedEntity(tag: DW_TAG_imported_declaration, scope: !0, entity: !134, file: !214, line: 75)
!245 = !DIImportedEntity(tag: DW_TAG_imported_declaration, scope: !0, entity: !140, file: !214, line: 76)
!246 = !DIImportedEntity(tag: DW_TAG_imported_declaration, scope: !0, entity: !144, file: !214, line: 77)
!247 = !DIImportedEntity(tag: DW_TAG_imported_declaration, scope: !0, entity: !148, file: !214, line: 78)
!248 = !DIImportedEntity(tag: DW_TAG_imported_declaration, scope: !0, entity: !150, file: !214, line: 80)
!249 = !DIImportedEntity(tag: DW_TAG_imported_declaration, scope: !0, entity: !158, file: !214, line: 81)
!250 = !{i32 7, !"Dwarf Version", i32 4}
!251 = !{i32 2, !"Debug Info Version", i32 3}
!252 = !{i32 1, !"wchar_size", i32 4}
!253 = !{i32 7, !"PIC Level", i32 2}
!254 = !{i32 7, !"PIE Level", i32 2}
!255 = !{i32 7, !"uwtable", i32 2}
!256 = !{!"clang version 15.0.0 (https://github.com/llvm/llvm-project.git 4ba6a9c9f65bbc8bd06e3652cb20fd4dfc846137)"}
!257 = distinct !DISubprogram(name: "calc_neighborhood", linkageName: "_Z17calc_neighborhoodiiPA80_A120_i", scope: !258, file: !258, line: 17, type: !259, scopeLine: 18, flags: DIFlagPrototyped | DIFlagAllCallsDescribed, spFlags: DISPFlagDefinition | DISPFlagOptimized, unit: !0, retainedNodes: !266)
!258 = !DIFile(filename: "example.cpp", directory: "/app")
!259 = !DISubroutineType(types: !260)
!260 = !{!9, !9, !9, !261}
!261 = !DIDerivedType(tag: DW_TAG_pointer_type, baseType: !262, size: 64)
!262 = !DICompositeType(tag: DW_TAG_array_type, baseType: !9, size: 307200, elements: !263)
!263 = !{!264, !265}
!264 = !DISubrange(count: 80)
!265 = !DISubrange(count: 120)
!266 = !{!267, !268, !269, !270, !274, !275, !276, !277, !278, !279, !281, !284, !285}
!267 = !DILocalVariable(name: "ind_x", arg: 1, scope: !257, file: !258, line: 17, type: !9)
!268 = !DILocalVariable(name: "ind_y", arg: 2, scope: !257, file: !258, line: 17, type: !9)
!269 = !DILocalVariable(name: "squares", arg: 3, scope: !257, file: !258, line: 17, type: !261)
!270 = !DILocalVariable(name: "arr_movement_x", scope: !257, file: !258, line: 19, type: !271)
!271 = !DICompositeType(tag: DW_TAG_array_type, baseType: !9, size: 256, elements: !272)
!272 = !{!273}
!273 = !DISubrange(count: 8)
!274 = !DILocalVariable(name: "arr_movement_y", scope: !257, file: !258, line: 20, type: !271)
!275 = !DILocalVariable(name: "sz", scope: !257, file: !258, line: 21, type: !9)
!276 = !DILocalVariable(name: "next_x", scope: !257, file: !258, line: 23, type: !9)
!277 = !DILocalVariable(name: "next_y", scope: !257, file: !258, line: 23, type: !9)
!278 = !DILocalVariable(name: "res", scope: !257, file: !258, line: 24, type: !9)
!279 = !DILocalVariable(name: "i", scope: !280, file: !258, line: 26, type: !9)
!280 = distinct !DILexicalBlock(scope: !257, file: !258, line: 26, column: 5)
!281 = !DILocalVariable(name: "next_x", scope: !282, file: !258, line: 27, type: !9)
!282 = distinct !DILexicalBlock(scope: !283, file: !258, line: 26, column: 34)
!283 = distinct !DILexicalBlock(scope: !280, file: !258, line: 26, column: 5)
!284 = !DILocalVariable(name: "next_y", scope: !282, file: !258, line: 28, type: !9)
!285 = !DILocalVariable(name: "correctness", scope: !282, file: !258, line: 30, type: !9)
!286 = !{!287, !287, i64 0}
!287 = !{!"int", !288, i64 0}
!288 = !{!"omnipotent char", !289, i64 0}
!289 = !{!"Simple C++ TBAA"}
!290 = !DILocation(line: 17, column: 27, scope: !257)
!291 = !DILocation(line: 17, column: 38, scope: !257)
!292 = !{!293, !293, i64 0}
!293 = !{!"any pointer", !288, i64 0}
!294 = !DILocation(line: 17, column: 51, scope: !257)
!295 = !DILocation(line: 19, column: 5, scope: !257)
!296 = !DILocation(line: 19, column: 9, scope: !257)
!297 = !DILocation(line: 20, column: 5, scope: !257)
!298 = !DILocation(line: 20, column: 9, scope: !257)
!299 = !DILocation(line: 21, column: 5, scope: !257)
!300 = !DILocation(line: 21, column: 9, scope: !257)
!301 = !DILocation(line: 23, column: 5, scope: !257)
!302 = !DILocation(line: 23, column: 9, scope: !257)
!303 = !DILocation(line: 23, column: 17, scope: !257)
!304 = !DILocation(line: 24, column: 5, scope: !257)
!305 = !DILocation(line: 24, column: 9, scope: !257)
!306 = !DILocation(line: 26, column: 10, scope: !280)
!307 = !DILocation(line: 26, column: 14, scope: !280)
!308 = !DILocation(line: 26, column: 21, scope: !283)
!309 = !DILocation(line: 26, column: 25, scope: !283)
!310 = !DILocation(line: 26, column: 23, scope: !283)
!311 = !DILocation(line: 26, column: 5, scope: !280)
!312 = !DILocation(line: 26, column: 5, scope: !283)
!313 = !DILocation(line: 27, column: 9, scope: !282)
!314 = !DILocation(line: 27, column: 13, scope: !282)
!315 = !DILocation(line: 27, column: 22, scope: !282)
!316 = !DILocation(line: 27, column: 45, scope: !282)
!317 = !DILocation(line: 27, column: 30, scope: !282)
!318 = !DILocation(line: 27, column: 28, scope: !282)
!319 = !DILocation(line: 28, column: 9, scope: !282)
!320 = !DILocation(line: 28, column: 13, scope: !282)
!321 = !DILocation(line: 28, column: 22, scope: !282)
!322 = !DILocation(line: 28, column: 45, scope: !282)
!323 = !DILocation(line: 28, column: 30, scope: !282)
!324 = !DILocation(line: 28, column: 28, scope: !282)
!325 = !DILocation(line: 30, column: 9, scope: !282)
!326 = !DILocation(line: 30, column: 13, scope: !282)
!327 = !DILocation(line: 30, column: 28, scope: !282)
!328 = !DILocation(line: 30, column: 35, scope: !282)
!329 = !DILocation(line: 30, column: 40, scope: !282)
!330 = !DILocation(line: 30, column: 43, scope: !282)
!331 = !DILocation(line: 30, column: 50, scope: !282)
!332 = !DILocation(line: 30, column: 55, scope: !282)
!333 = !DILocation(line: 30, column: 58, scope: !282)
!334 = !DILocation(line: 30, column: 65, scope: !282)
!335 = !DILocation(line: 30, column: 78, scope: !282)
!336 = !DILocation(line: 30, column: 81, scope: !282)
!337 = !DILocation(line: 30, column: 88, scope: !282)
!338 = !DILocation(line: 0, scope: !282)
!339 = !DILocation(line: 30, column: 27, scope: !282)
!340 = !DILocation(line: 31, column: 13, scope: !341)
!341 = distinct !DILexicalBlock(scope: !282, file: !258, line: 31, column: 13)
!342 = !DILocation(line: 31, column: 25, scope: !341)
!343 = !DILocation(line: 31, column: 30, scope: !341)
!344 = !DILocation(line: 31, column: 39, scope: !341)
!345 = !DILocation(line: 31, column: 28, scope: !341)
!346 = !DILocation(line: 31, column: 47, scope: !341)
!347 = !DILocation(line: 31, column: 55, scope: !341)
!348 = !DILocation(line: 31, column: 13, scope: !282)
!349 = !DILocation(line: 32, column: 16, scope: !350)
!350 = distinct !DILexicalBlock(scope: !341, file: !258, line: 31, column: 61)
!351 = !DILocation(line: 33, column: 9, scope: !350)
!352 = !DILocation(line: 34, column: 5, scope: !283)
!353 = !DILocation(line: 34, column: 5, scope: !282)
!354 = !DILocation(line: 26, column: 29, scope: !283)
!355 = distinct !{!355, !311, !356, !357}
!356 = !DILocation(line: 34, column: 5, scope: !280)
!357 = !{!"llvm.loop.mustprogress"}
!358 = !DILocation(line: 36, column: 12, scope: !257)
!359 = !DILocation(line: 37, column: 1, scope: !257)
!360 = !DILocation(line: 36, column: 5, scope: !257)
!361 = distinct !DISubprogram(name: "fill_next", linkageName: "_Z9fill_nextPA80_A120_iS1_", scope: !258, file: !258, line: 39, type: !362, scopeLine: 40, flags: DIFlagPrototyped | DIFlagAllCallsDescribed, spFlags: DISPFlagDefinition | DISPFlagOptimized, unit: !0, retainedNodes: !364)
!362 = !DISubroutineType(types: !363)
!363 = !{null, !261, !261}
!364 = !{!365, !366, !367, !368, !370, !374, !377, !379}
!365 = !DILocalVariable(name: "squares", arg: 1, scope: !361, file: !258, line: 39, type: !261)
!366 = !DILocalVariable(name: "squares_next", arg: 2, scope: !361, file: !258, line: 39, type: !261)
!367 = !DILocalVariable(name: "neigbors", scope: !361, file: !258, line: 41, type: !9)
!368 = !DILocalVariable(name: "i", scope: !369, file: !258, line: 42, type: !9)
!369 = distinct !DILexicalBlock(scope: !361, file: !258, line: 42, column: 5)
!370 = !DILocalVariable(name: "j", scope: !371, file: !258, line: 43, type: !9)
!371 = distinct !DILexicalBlock(scope: !372, file: !258, line: 43, column: 9)
!372 = distinct !DILexicalBlock(scope: !373, file: !258, line: 42, column: 42)
!373 = distinct !DILexicalBlock(scope: !369, file: !258, line: 42, column: 5)
!374 = !DILocalVariable(name: "death_condition", scope: !375, file: !258, line: 46, type: !9)
!375 = distinct !DILexicalBlock(scope: !376, file: !258, line: 43, column: 46)
!376 = distinct !DILexicalBlock(scope: !371, file: !258, line: 43, column: 9)
!377 = !DILocalVariable(name: "i", scope: !378, file: !258, line: 54, type: !9)
!378 = distinct !DILexicalBlock(scope: !361, file: !258, line: 54, column: 5)
!379 = !DILocalVariable(name: "j", scope: !380, file: !258, line: 55, type: !9)
!380 = distinct !DILexicalBlock(scope: !381, file: !258, line: 55, column: 9)
!381 = distinct !DILexicalBlock(scope: !382, file: !258, line: 54, column: 42)
!382 = distinct !DILexicalBlock(scope: !378, file: !258, line: 54, column: 5)
!383 = !DILocation(line: 39, column: 22, scope: !361)
!384 = !DILocation(line: 39, column: 62, scope: !361)
!385 = !DILocation(line: 41, column: 5, scope: !361)
!386 = !DILocation(line: 41, column: 9, scope: !361)
!387 = !DILocation(line: 42, column: 10, scope: !369)
!388 = !DILocation(line: 42, column: 14, scope: !369)
!389 = !DILocation(line: 42, column: 21, scope: !373)
!390 = !DILocation(line: 42, column: 23, scope: !373)
!391 = !DILocation(line: 42, column: 5, scope: !369)
!392 = !DILocation(line: 42, column: 5, scope: !373)
!393 = !DILocation(line: 43, column: 14, scope: !371)
!394 = !DILocation(line: 43, column: 18, scope: !371)
!395 = !DILocation(line: 43, column: 25, scope: !376)
!396 = !DILocation(line: 43, column: 27, scope: !376)
!397 = !DILocation(line: 43, column: 9, scope: !371)
!398 = !DILocation(line: 43, column: 9, scope: !376)
!399 = !DILocation(line: 44, column: 42, scope: !375)
!400 = !DILocation(line: 44, column: 45, scope: !375)
!401 = !DILocation(line: 44, column: 48, scope: !375)
!402 = !DILocation(line: 44, column: 24, scope: !375)
!403 = !DILocation(line: 44, column: 22, scope: !375)
!404 = !DILocation(line: 46, column: 13, scope: !375)
!405 = !DILocation(line: 46, column: 17, scope: !375)
!406 = !DILocation(line: 46, column: 35, scope: !375)
!407 = !DILocation(line: 46, column: 44, scope: !375)
!408 = !DILocation(line: 46, column: 48, scope: !375)
!409 = !DILocation(line: 46, column: 51, scope: !375)
!410 = !DILocation(line: 46, column: 60, scope: !375)
!411 = !DILocation(line: 47, column: 17, scope: !412)
!412 = distinct !DILexicalBlock(scope: !375, file: !258, line: 47, column: 17)
!413 = !DILocation(line: 47, column: 33, scope: !412)
!414 = !DILocation(line: 47, column: 17, scope: !375)
!415 = !DILocation(line: 48, column: 19, scope: !416)
!416 = distinct !DILexicalBlock(scope: !412, file: !258, line: 47, column: 38)
!417 = !DILocation(line: 48, column: 33, scope: !416)
!418 = !DILocation(line: 48, column: 17, scope: !416)
!419 = !DILocation(line: 48, column: 36, scope: !416)
!420 = !DILocation(line: 48, column: 39, scope: !416)
!421 = !DILocation(line: 49, column: 17, scope: !416)
!422 = !DILocation(line: 51, column: 15, scope: !375)
!423 = !DILocation(line: 51, column: 29, scope: !375)
!424 = !DILocation(line: 51, column: 13, scope: !375)
!425 = !DILocation(line: 51, column: 32, scope: !375)
!426 = !DILocation(line: 51, column: 35, scope: !375)
!427 = !DILocation(line: 52, column: 9, scope: !376)
!428 = !DILocation(line: 52, column: 9, scope: !375)
!429 = !DILocation(line: 43, column: 41, scope: !376)
!430 = distinct !{!430, !397, !431, !357}
!431 = !DILocation(line: 52, column: 9, scope: !371)
!432 = !DILocation(line: 53, column: 5, scope: !372)
!433 = !DILocation(line: 42, column: 37, scope: !373)
!434 = distinct !{!434, !391, !435, !357}
!435 = !DILocation(line: 53, column: 5, scope: !369)
!436 = !DILocation(line: 54, column: 10, scope: !378)
!437 = !DILocation(line: 54, column: 14, scope: !378)
!438 = !DILocation(line: 54, column: 21, scope: !382)
!439 = !DILocation(line: 54, column: 23, scope: !382)
!440 = !DILocation(line: 54, column: 5, scope: !378)
!441 = !DILocation(line: 54, column: 5, scope: !382)
!442 = !DILocation(line: 55, column: 14, scope: !380)
!443 = !DILocation(line: 55, column: 18, scope: !380)
!444 = !DILocation(line: 55, column: 25, scope: !445)
!445 = distinct !DILexicalBlock(scope: !380, file: !258, line: 55, column: 9)
!446 = !DILocation(line: 55, column: 27, scope: !445)
!447 = !DILocation(line: 55, column: 9, scope: !380)
!448 = !DILocation(line: 55, column: 9, scope: !445)
!449 = !DILocation(line: 56, column: 34, scope: !450)
!450 = distinct !DILexicalBlock(scope: !445, file: !258, line: 55, column: 46)
!451 = !DILocation(line: 56, column: 48, scope: !450)
!452 = !DILocation(line: 56, column: 32, scope: !450)
!453 = !DILocation(line: 56, column: 51, scope: !450)
!454 = !DILocation(line: 56, column: 15, scope: !450)
!455 = !DILocation(line: 56, column: 24, scope: !450)
!456 = !DILocation(line: 56, column: 13, scope: !450)
!457 = !DILocation(line: 56, column: 27, scope: !450)
!458 = !DILocation(line: 56, column: 30, scope: !450)
!459 = !DILocation(line: 57, column: 9, scope: !450)
!460 = !DILocation(line: 55, column: 41, scope: !445)
!461 = distinct !{!461, !447, !462, !357}
!462 = !DILocation(line: 57, column: 9, scope: !380)
!463 = !DILocation(line: 58, column: 5, scope: !381)
!464 = !DILocation(line: 54, column: 37, scope: !382)
!465 = distinct !{!465, !440, !466, !357}
!466 = !DILocation(line: 58, column: 5, scope: !378)
!467 = !DILocation(line: 59, column: 1, scope: !361)
!468 = distinct !DISubprogram(name: "printSquare", linkageName: "_Z11printSquarePA80_A120_iii", scope: !258, file: !258, line: 61, type: !469, scopeLine: 61, flags: DIFlagPrototyped | DIFlagAllCallsDescribed, spFlags: DISPFlagDefinition | DISPFlagOptimized, unit: !0, retainedNodes: !471)
!469 = !DISubroutineType(types: !470)
!470 = !{null, !261, !9, !9}
!471 = !{!472, !473, !474, !475, !476, !477, !481, !485, !487}
!472 = !DILocalVariable(name: "squares", arg: 1, scope: !468, file: !258, line: 61, type: !261)
!473 = !DILocalVariable(name: "x", arg: 2, scope: !468, file: !258, line: 61, type: !9)
!474 = !DILocalVariable(name: "y", arg: 3, scope: !468, file: !258, line: 61, type: !9)
!475 = !DILocalVariable(name: "black", scope: !468, file: !258, line: 62, type: !9)
!476 = !DILocalVariable(name: "darkorchid", scope: !468, file: !258, line: 63, type: !9)
!477 = !DILocalVariable(name: "i", scope: !478, file: !258, line: 66, type: !9)
!478 = distinct !DILexicalBlock(scope: !479, file: !258, line: 66, column: 9)
!479 = distinct !DILexicalBlock(scope: !480, file: !258, line: 65, column: 32)
!480 = distinct !DILexicalBlock(scope: !468, file: !258, line: 65, column: 9)
!481 = !DILocalVariable(name: "j", scope: !482, file: !258, line: 67, type: !9)
!482 = distinct !DILexicalBlock(scope: !483, file: !258, line: 67, column: 13)
!483 = distinct !DILexicalBlock(scope: !484, file: !258, line: 66, column: 43)
!484 = distinct !DILexicalBlock(scope: !478, file: !258, line: 66, column: 9)
!485 = !DILocalVariable(name: "i", scope: !486, file: !258, line: 75, type: !9)
!486 = distinct !DILexicalBlock(scope: !468, file: !258, line: 75, column: 5)
!487 = !DILocalVariable(name: "j", scope: !488, file: !258, line: 76, type: !9)
!488 = distinct !DILexicalBlock(scope: !489, file: !258, line: 76, column: 9)
!489 = distinct !DILexicalBlock(scope: !490, file: !258, line: 75, column: 39)
!490 = distinct !DILexicalBlock(scope: !486, file: !258, line: 75, column: 5)
!491 = !DILocation(line: 61, column: 24, scope: !468)
!492 = !DILocation(line: 61, column: 62, scope: !468)
!493 = !DILocation(line: 61, column: 69, scope: !468)
!494 = !DILocation(line: 62, column: 5, scope: !468)
!495 = !DILocation(line: 62, column: 9, scope: !468)
!496 = !DILocation(line: 63, column: 5, scope: !468)
!497 = !DILocation(line: 63, column: 9, scope: !468)
!498 = !DILocation(line: 65, column: 11, scope: !480)
!499 = !DILocation(line: 65, column: 20, scope: !480)
!500 = !DILocation(line: 65, column: 9, scope: !480)
!501 = !DILocation(line: 65, column: 23, scope: !480)
!502 = !DILocation(line: 65, column: 26, scope: !480)
!503 = !DILocation(line: 65, column: 9, scope: !468)
!504 = !DILocation(line: 66, column: 14, scope: !478)
!505 = !DILocation(line: 66, column: 18, scope: !478)
!506 = !DILocation(line: 66, column: 25, scope: !484)
!507 = !DILocation(line: 66, column: 27, scope: !484)
!508 = !DILocation(line: 66, column: 9, scope: !478)
!509 = !DILocation(line: 66, column: 9, scope: !484)
!510 = !DILocation(line: 67, column: 18, scope: !482)
!511 = !DILocation(line: 67, column: 22, scope: !482)
!512 = !DILocation(line: 67, column: 29, scope: !513)
!513 = distinct !DILexicalBlock(scope: !482, file: !258, line: 67, column: 13)
!514 = !DILocation(line: 67, column: 31, scope: !513)
!515 = !DILocation(line: 67, column: 13, scope: !482)
!516 = !DILocation(line: 67, column: 13, scope: !513)
!517 = !DILocation(line: 68, column: 29, scope: !518)
!518 = distinct !DILexicalBlock(scope: !513, file: !258, line: 67, column: 47)
!519 = !DILocation(line: 68, column: 31, scope: !518)
!520 = !DILocation(line: 68, column: 43, scope: !518)
!521 = !DILocation(line: 68, column: 41, scope: !518)
!522 = !DILocation(line: 68, column: 46, scope: !518)
!523 = !DILocation(line: 68, column: 48, scope: !518)
!524 = !DILocation(line: 68, column: 60, scope: !518)
!525 = !DILocation(line: 68, column: 58, scope: !518)
!526 = !DILocation(line: 68, column: 63, scope: !518)
!527 = !DILocation(line: 68, column: 17, scope: !518)
!528 = !DILocation(line: 69, column: 13, scope: !518)
!529 = !DILocation(line: 67, column: 42, scope: !513)
!530 = distinct !{!530, !515, !531, !357}
!531 = !DILocation(line: 69, column: 13, scope: !482)
!532 = !DILocation(line: 70, column: 9, scope: !483)
!533 = !DILocation(line: 66, column: 38, scope: !484)
!534 = distinct !{!534, !508, !535, !357}
!535 = !DILocation(line: 70, column: 9, scope: !478)
!536 = !DILocation(line: 72, column: 9, scope: !479)
!537 = !DILocation(line: 75, column: 10, scope: !486)
!538 = !DILocation(line: 75, column: 14, scope: !486)
!539 = !DILocation(line: 75, column: 21, scope: !490)
!540 = !DILocation(line: 75, column: 23, scope: !490)
!541 = !DILocation(line: 75, column: 5, scope: !486)
!542 = !DILocation(line: 75, column: 5, scope: !490)
!543 = !DILocation(line: 76, column: 14, scope: !488)
!544 = !DILocation(line: 76, column: 18, scope: !488)
!545 = !DILocation(line: 76, column: 25, scope: !546)
!546 = distinct !DILexicalBlock(scope: !488, file: !258, line: 76, column: 9)
!547 = !DILocation(line: 76, column: 27, scope: !546)
!548 = !DILocation(line: 76, column: 9, scope: !488)
!549 = !DILocation(line: 76, column: 9, scope: !546)
!550 = !DILocation(line: 77, column: 25, scope: !551)
!551 = distinct !DILexicalBlock(scope: !546, file: !258, line: 76, column: 43)
!552 = !DILocation(line: 77, column: 27, scope: !551)
!553 = !DILocation(line: 77, column: 39, scope: !551)
!554 = !DILocation(line: 77, column: 37, scope: !551)
!555 = !DILocation(line: 77, column: 42, scope: !551)
!556 = !DILocation(line: 77, column: 44, scope: !551)
!557 = !DILocation(line: 77, column: 56, scope: !551)
!558 = !DILocation(line: 77, column: 54, scope: !551)
!559 = !DILocation(line: 77, column: 59, scope: !551)
!560 = !DILocation(line: 77, column: 13, scope: !551)
!561 = !DILocation(line: 78, column: 9, scope: !551)
!562 = !DILocation(line: 76, column: 38, scope: !546)
!563 = distinct !{!563, !548, !564, !357}
!564 = !DILocation(line: 78, column: 9, scope: !488)
!565 = !DILocation(line: 79, column: 5, scope: !489)
!566 = !DILocation(line: 75, column: 34, scope: !490)
!567 = distinct !{!567, !541, !568, !357}
!568 = !DILocation(line: 79, column: 5, scope: !486)
!569 = !DILocation(line: 80, column: 1, scope: !468)
!570 = !DISubprogram(name: "simPutPixel", linkageName: "_Z11simPutPixeliii", scope: !258, file: !258, line: 13, type: !571, flags: DIFlagPrototyped, spFlags: DISPFlagOptimized, retainedNodes: !573)
!571 = !DISubroutineType(types: !572)
!572 = !{null, !9, !9, !9}
!573 = !{}
!574 = distinct !DISubprogram(name: "app", linkageName: "_Z3appv", scope: !258, file: !258, line: 82, type: !24, scopeLine: 82, flags: DIFlagPrototyped | DIFlagAllCallsDescribed, spFlags: DISPFlagDefinition | DISPFlagOptimized, unit: !0, retainedNodes: !575)
!575 = !{!576, !577, !578, !579, !581, !585, !588, !590, !594}
!576 = !DILocalVariable(name: "squares", scope: !574, file: !258, line: 83, type: !262)
!577 = !DILocalVariable(name: "squares_next", scope: !574, file: !258, line: 84, type: !262)
!578 = !DILocalVariable(name: "sqr_num", scope: !574, file: !258, line: 87, type: !9)
!579 = !DILocalVariable(name: "i", scope: !580, file: !258, line: 90, type: !9)
!580 = distinct !DILexicalBlock(scope: !574, file: !258, line: 90, column: 5)
!581 = !DILocalVariable(name: "j", scope: !582, file: !258, line: 91, type: !9)
!582 = distinct !DILexicalBlock(scope: !583, file: !258, line: 91, column: 9)
!583 = distinct !DILexicalBlock(scope: !584, file: !258, line: 90, column: 42)
!584 = distinct !DILexicalBlock(scope: !580, file: !258, line: 90, column: 5)
!585 = !DILocalVariable(name: "random", scope: !586, file: !258, line: 92, type: !9)
!586 = distinct !DILexicalBlock(scope: !587, file: !258, line: 91, column: 46)
!587 = distinct !DILexicalBlock(scope: !582, file: !258, line: 91, column: 9)
!588 = !DILocalVariable(name: "step", scope: !589, file: !258, line: 102, type: !9)
!589 = distinct !DILexicalBlock(scope: !574, file: !258, line: 102, column: 5)
!590 = !DILocalVariable(name: "y", scope: !591, file: !258, line: 103, type: !9)
!591 = distinct !DILexicalBlock(scope: !592, file: !258, line: 103, column: 9)
!592 = distinct !DILexicalBlock(scope: !593, file: !258, line: 102, column: 45)
!593 = distinct !DILexicalBlock(scope: !589, file: !258, line: 102, column: 5)
!594 = !DILocalVariable(name: "x", scope: !595, file: !258, line: 104, type: !9)
!595 = distinct !DILexicalBlock(scope: !596, file: !258, line: 104, column: 13)
!596 = distinct !DILexicalBlock(scope: !597, file: !258, line: 103, column: 46)
!597 = distinct !DILexicalBlock(scope: !591, file: !258, line: 103, column: 9)
!598 = !DILocation(line: 83, column: 5, scope: !574)
!599 = !DILocation(line: 83, column: 9, scope: !574)
!600 = !DILocation(line: 84, column: 5, scope: !574)
!601 = !DILocation(line: 84, column: 9, scope: !574)
!602 = !DILocation(line: 87, column: 5, scope: !574)
!603 = !DILocation(line: 87, column: 9, scope: !574)
!604 = !DILocation(line: 90, column: 10, scope: !580)
!605 = !DILocation(line: 90, column: 14, scope: !580)
!606 = !DILocation(line: 90, column: 21, scope: !584)
!607 = !DILocation(line: 90, column: 23, scope: !584)
!608 = !DILocation(line: 90, column: 5, scope: !580)
!609 = !DILocation(line: 90, column: 5, scope: !584)
!610 = !DILocation(line: 91, column: 14, scope: !582)
!611 = !DILocation(line: 91, column: 18, scope: !582)
!612 = !DILocation(line: 91, column: 25, scope: !587)
!613 = !DILocation(line: 91, column: 27, scope: !587)
!614 = !DILocation(line: 91, column: 9, scope: !582)
!615 = !DILocation(line: 91, column: 9, scope: !587)
!616 = !DILocation(line: 92, column: 13, scope: !586)
!617 = !DILocation(line: 92, column: 17, scope: !586)
!618 = !DILocation(line: 92, column: 26, scope: !586)
!619 = !DILocation(line: 92, column: 38, scope: !586)
!620 = !DILocation(line: 92, column: 36, scope: !586)
!621 = !DILocation(line: 93, column: 17, scope: !622)
!622 = distinct !DILexicalBlock(scope: !586, file: !258, line: 93, column: 17)
!623 = !DILocation(line: 93, column: 24, scope: !622)
!624 = !DILocation(line: 93, column: 17, scope: !586)
!625 = !DILocation(line: 94, column: 25, scope: !626)
!626 = distinct !DILexicalBlock(scope: !622, file: !258, line: 93, column: 29)
!627 = !DILocation(line: 94, column: 17, scope: !626)
!628 = !DILocation(line: 94, column: 28, scope: !626)
!629 = !DILocation(line: 94, column: 31, scope: !626)
!630 = !DILocation(line: 95, column: 17, scope: !626)
!631 = !DILocation(line: 97, column: 21, scope: !586)
!632 = !DILocation(line: 97, column: 13, scope: !586)
!633 = !DILocation(line: 97, column: 24, scope: !586)
!634 = !DILocation(line: 97, column: 27, scope: !586)
!635 = !DILocation(line: 98, column: 9, scope: !587)
!636 = !DILocation(line: 98, column: 9, scope: !586)
!637 = !DILocation(line: 91, column: 41, scope: !587)
!638 = distinct !{!638, !614, !639, !357}
!639 = !DILocation(line: 98, column: 9, scope: !582)
!640 = !DILocation(line: 99, column: 5, scope: !583)
!641 = !DILocation(line: 90, column: 37, scope: !584)
!642 = distinct !{!642, !608, !643, !357}
!643 = !DILocation(line: 99, column: 5, scope: !580)
!644 = !DILocation(line: 102, column: 10, scope: !589)
!645 = !DILocation(line: 102, column: 14, scope: !589)
!646 = !DILocation(line: 102, column: 24, scope: !593)
!647 = !DILocation(line: 102, column: 29, scope: !593)
!648 = !DILocation(line: 102, column: 5, scope: !589)
!649 = !DILocation(line: 102, column: 5, scope: !593)
!650 = !DILocation(line: 103, column: 14, scope: !591)
!651 = !DILocation(line: 103, column: 18, scope: !591)
!652 = !DILocation(line: 103, column: 25, scope: !597)
!653 = !DILocation(line: 103, column: 27, scope: !597)
!654 = !DILocation(line: 103, column: 9, scope: !591)
!655 = !DILocation(line: 103, column: 9, scope: !597)
!656 = !DILocation(line: 104, column: 18, scope: !595)
!657 = !DILocation(line: 104, column: 22, scope: !595)
!658 = !DILocation(line: 104, column: 29, scope: !659)
!659 = distinct !DILexicalBlock(scope: !595, file: !258, line: 104, column: 13)
!660 = !DILocation(line: 104, column: 31, scope: !659)
!661 = !DILocation(line: 104, column: 13, scope: !595)
!662 = !DILocation(line: 104, column: 13, scope: !659)
!663 = !DILocation(line: 105, column: 39, scope: !664)
!664 = distinct !DILexicalBlock(scope: !659, file: !258, line: 104, column: 50)
!665 = !DILocation(line: 105, column: 42, scope: !664)
!666 = !DILocation(line: 105, column: 17, scope: !664)
!667 = !DILocation(line: 106, column: 13, scope: !664)
!668 = !DILocation(line: 104, column: 45, scope: !659)
!669 = distinct !{!669, !661, !670, !357}
!670 = !DILocation(line: 106, column: 13, scope: !595)
!671 = !DILocation(line: 107, column: 9, scope: !596)
!672 = !DILocation(line: 103, column: 41, scope: !597)
!673 = distinct !{!673, !654, !674, !357}
!674 = !DILocation(line: 107, column: 9, scope: !591)
!675 = !DILocation(line: 108, column: 9, scope: !592)
!676 = !DILocation(line: 109, column: 9, scope: !592)
!677 = !DILocation(line: 110, column: 5, scope: !592)
!678 = !DILocation(line: 102, column: 37, scope: !593)
!679 = distinct !{!679, !648, !680, !357}
!680 = !DILocation(line: 110, column: 5, scope: !589)
!681 = !DILocation(line: 111, column: 1, scope: !574)
!682 = !DISubprogram(name: "simRand", linkageName: "_Z7simRandv", scope: !258, file: !258, line: 14, type: !122, flags: DIFlagPrototyped, spFlags: DISPFlagOptimized, retainedNodes: !573)
!683 = !DISubprogram(name: "simFlush", linkageName: "_Z8simFlushv", scope: !258, file: !258, line: 12, type: !24, flags: DIFlagPrototyped, spFlags: DISPFlagOptimized, retainedNodes: !573)
*** IR Dump After InferFunctionAttrsPass on [module] ***
; ModuleID = '<source>'
source_filename = "<source>"
target datalayout = "e-m:e-p270:32:32-p271:32:32-p272:64:64-i64:64-f80:128-n8:16:32:64-S128"
target triple = "x86_64-unknown-linux-gnu"

@__const._Z17calc_neighborhoodiiPA80_A120_i.arr_movement_x = private unnamed_addr constant [8 x i32] [i32 -1, i32 -1, i32 1, i32 1, i32 1, i32 0, i32 1, i32 0], align 16
@__const._Z17calc_neighborhoodiiPA80_A120_i.arr_movement_y = private unnamed_addr constant [8 x i32] [i32 0, i32 -1, i32 0, i32 -1, i32 -1, i32 0, i32 -1, i32 -1], align 16

; Function Attrs: mustprogress nounwind uwtable
define dso_local noundef i32 @_Z17calc_neighborhoodiiPA80_A120_i(i32 noundef %0, i32 noundef %1, ptr noundef %2) #0 !dbg !257 {
  %4 = alloca i32, align 4
  %5 = alloca i32, align 4
  %6 = alloca ptr, align 8
  %7 = alloca [8 x i32], align 16
  %8 = alloca [8 x i32], align 16
  %9 = alloca i32, align 4
  %10 = alloca i32, align 4
  %11 = alloca i32, align 4
  %12 = alloca i32, align 4
  %13 = alloca i32, align 4
  %14 = alloca i32, align 4
  %15 = alloca i32, align 4
  %16 = alloca i32, align 4
  store i32 %0, ptr %4, align 4, !tbaa !286
  call void @llvm.dbg.declare(metadata ptr %4, metadata !267, metadata !DIExpression()), !dbg !290
  store i32 %1, ptr %5, align 4, !tbaa !286
  call void @llvm.dbg.declare(metadata ptr %5, metadata !268, metadata !DIExpression()), !dbg !291
  store ptr %2, ptr %6, align 8, !tbaa !292
  call void @llvm.dbg.declare(metadata ptr %6, metadata !269, metadata !DIExpression()), !dbg !294
  call void @llvm.lifetime.start.p0(i64 32, ptr %7) #6, !dbg !295
  call void @llvm.dbg.declare(metadata ptr %7, metadata !270, metadata !DIExpression()), !dbg !296
  call void @llvm.memcpy.p0.p0.i64(ptr align 16 %7, ptr align 16 @__const._Z17calc_neighborhoodiiPA80_A120_i.arr_movement_x, i64 32, i1 false), !dbg !296
  call void @llvm.lifetime.start.p0(i64 32, ptr %8) #6, !dbg !297
  call void @llvm.dbg.declare(metadata ptr %8, metadata !274, metadata !DIExpression()), !dbg !298
  call void @llvm.memcpy.p0.p0.i64(ptr align 16 %8, ptr align 16 @__const._Z17calc_neighborhoodiiPA80_A120_i.arr_movement_y, i64 32, i1 false), !dbg !298
  call void @llvm.lifetime.start.p0(i64 4, ptr %9) #6, !dbg !299
  call void @llvm.dbg.declare(metadata ptr %9, metadata !275, metadata !DIExpression()), !dbg !300
  store i32 32, ptr %9, align 4, !dbg !300, !tbaa !286
  call void @llvm.lifetime.start.p0(i64 4, ptr %10) #6, !dbg !301
  call void @llvm.dbg.declare(metadata ptr %10, metadata !276, metadata !DIExpression()), !dbg !302
  call void @llvm.lifetime.start.p0(i64 4, ptr %11) #6, !dbg !301
  call void @llvm.dbg.declare(metadata ptr %11, metadata !277, metadata !DIExpression()), !dbg !303
  call void @llvm.lifetime.start.p0(i64 4, ptr %12) #6, !dbg !304
  call void @llvm.dbg.declare(metadata ptr %12, metadata !278, metadata !DIExpression()), !dbg !305
  store i32 0, ptr %12, align 4, !dbg !305, !tbaa !286
  call void @llvm.lifetime.start.p0(i64 4, ptr %13) #6, !dbg !306
  call void @llvm.dbg.declare(metadata ptr %13, metadata !279, metadata !DIExpression()), !dbg !307
  store i32 0, ptr %13, align 4, !dbg !307, !tbaa !286
  br label %17, !dbg !306

17:                                               ; preds = %65, %3
  %18 = load i32, ptr %13, align 4, !dbg !308, !tbaa !286
  %19 = load i32, ptr %9, align 4, !dbg !309, !tbaa !286
  %20 = icmp slt i32 %18, %19, !dbg !310
  br i1 %20, label %22, label %21, !dbg !311

21:                                               ; preds = %17
  call void @llvm.lifetime.end.p0(i64 4, ptr %13) #6, !dbg !312
  br label %68

22:                                               ; preds = %17
  call void @llvm.lifetime.start.p0(i64 4, ptr %14) #6, !dbg !313
  call void @llvm.dbg.declare(metadata ptr %14, metadata !281, metadata !DIExpression()), !dbg !314
  %23 = load i32, ptr %4, align 4, !dbg !315, !tbaa !286
  %24 = load i32, ptr %13, align 4, !dbg !316, !tbaa !286
  %25 = sext i32 %24 to i64, !dbg !317
  %26 = getelementptr inbounds [8 x i32], ptr %7, i64 0, i64 %25, !dbg !317
  %27 = load i32, ptr %26, align 4, !dbg !317, !tbaa !286
  %28 = add nsw i32 %23, %27, !dbg !318
  store i32 %28, ptr %14, align 4, !dbg !314, !tbaa !286
  call void @llvm.lifetime.start.p0(i64 4, ptr %15) #6, !dbg !319
  call void @llvm.dbg.declare(metadata ptr %15, metadata !284, metadata !DIExpression()), !dbg !320
  %29 = load i32, ptr %5, align 4, !dbg !321, !tbaa !286
  %30 = load i32, ptr %13, align 4, !dbg !322, !tbaa !286
  %31 = sext i32 %30 to i64, !dbg !323
  %32 = getelementptr inbounds [8 x i32], ptr %8, i64 0, i64 %31, !dbg !323
  %33 = load i32, ptr %32, align 4, !dbg !323, !tbaa !286
  %34 = add nsw i32 %29, %33, !dbg !324
  store i32 %34, ptr %15, align 4, !dbg !320, !tbaa !286
  call void @llvm.lifetime.start.p0(i64 4, ptr %16) #6, !dbg !325
  call void @llvm.dbg.declare(metadata ptr %16, metadata !285, metadata !DIExpression()), !dbg !326
  %35 = load i32, ptr %14, align 4, !dbg !327, !tbaa !286
  %36 = icmp sge i32 %35, 0, !dbg !328
  br i1 %36, label %37, label %46, !dbg !329

37:                                               ; preds = %22
  %38 = load i32, ptr %15, align 4, !dbg !330, !tbaa !286
  %39 = icmp sge i32 %38, 0, !dbg !331
  br i1 %39, label %40, label %46, !dbg !332

40:                                               ; preds = %37
  %41 = load i32, ptr %14, align 4, !dbg !333, !tbaa !286
  %42 = icmp slt i32 %41, 80, !dbg !334
  br i1 %42, label %43, label %46, !dbg !335

43:                                               ; preds = %40
  %44 = load i32, ptr %15, align 4, !dbg !336, !tbaa !286
  %45 = icmp slt i32 %44, 120, !dbg !337
  br label %46

46:                                               ; preds = %43, %40, %37, %22
  %47 = phi i1 [ false, %40 ], [ false, %37 ], [ false, %22 ], [ %45, %43 ], !dbg !338
  %48 = zext i1 %47 to i32, !dbg !339
  store i32 %48, ptr %16, align 4, !dbg !326, !tbaa !286
  %49 = load i32, ptr %16, align 4, !dbg !340, !tbaa !286
  %50 = icmp ne i32 %49, 0, !dbg !340
  br i1 %50, label %51, label %64, !dbg !342

51:                                               ; preds = %46
  %52 = load ptr, ptr %6, align 8, !dbg !343, !tbaa !292
  %53 = load i32, ptr %14, align 4, !dbg !344, !tbaa !286
  %54 = sext i32 %53 to i64, !dbg !345
  %55 = getelementptr inbounds [80 x [120 x i32]], ptr %52, i64 0, i64 %54, !dbg !345
  %56 = load i32, ptr %15, align 4, !dbg !346, !tbaa !286
  %57 = sext i32 %56 to i64, !dbg !345
  %58 = getelementptr inbounds [120 x i32], ptr %55, i64 0, i64 %57, !dbg !345
  %59 = load i32, ptr %58, align 4, !dbg !345, !tbaa !286
  %60 = icmp eq i32 %59, 1, !dbg !347
  br i1 %60, label %61, label %64, !dbg !348

61:                                               ; preds = %51
  %62 = load i32, ptr %12, align 4, !dbg !349, !tbaa !286
  %63 = add nsw i32 %62, 1, !dbg !349
  store i32 %63, ptr %12, align 4, !dbg !349, !tbaa !286
  br label %64, !dbg !351

64:                                               ; preds = %61, %51, %46
  call void @llvm.lifetime.end.p0(i64 4, ptr %16) #6, !dbg !352
  call void @llvm.lifetime.end.p0(i64 4, ptr %15) #6, !dbg !352
  call void @llvm.lifetime.end.p0(i64 4, ptr %14) #6, !dbg !352
  br label %65, !dbg !353

65:                                               ; preds = %64
  %66 = load i32, ptr %13, align 4, !dbg !354, !tbaa !286
  %67 = add nsw i32 %66, 1, !dbg !354
  store i32 %67, ptr %13, align 4, !dbg !354, !tbaa !286
  br label %17, !dbg !312, !llvm.loop !355

68:                                               ; preds = %21
  %69 = load i32, ptr %12, align 4, !dbg !358, !tbaa !286
  call void @llvm.lifetime.end.p0(i64 4, ptr %12) #6, !dbg !359
  call void @llvm.lifetime.end.p0(i64 4, ptr %11) #6, !dbg !359
  call void @llvm.lifetime.end.p0(i64 4, ptr %10) #6, !dbg !359
  call void @llvm.lifetime.end.p0(i64 4, ptr %9) #6, !dbg !359
  call void @llvm.lifetime.end.p0(i64 32, ptr %8) #6, !dbg !359
  call void @llvm.lifetime.end.p0(i64 32, ptr %7) #6, !dbg !359
  ret i32 %69, !dbg !360
}

; Function Attrs: mustprogress nocallback nofree nosync nounwind readnone speculatable willreturn
declare void @llvm.dbg.declare(metadata, metadata, metadata) #1

; Function Attrs: argmemonly mustprogress nocallback nofree nosync nounwind willreturn
declare void @llvm.lifetime.start.p0(i64 immarg, ptr nocapture) #2

; Function Attrs: argmemonly mustprogress nocallback nofree nounwind willreturn
declare void @llvm.memcpy.p0.p0.i64(ptr noalias nocapture writeonly, ptr noalias nocapture readonly, i64, i1 immarg) #3

; Function Attrs: argmemonly mustprogress nocallback nofree nosync nounwind willreturn
declare void @llvm.lifetime.end.p0(i64 immarg, ptr nocapture) #2

; Function Attrs: mustprogress nounwind uwtable
define dso_local void @_Z9fill_nextPA80_A120_iS1_(ptr noundef %0, ptr noundef %1) #0 !dbg !361 {
  %3 = alloca ptr, align 8
  %4 = alloca ptr, align 8
  %5 = alloca i32, align 4
  %6 = alloca i32, align 4
  %7 = alloca i32, align 4
  %8 = alloca i32, align 4
  %9 = alloca i32, align 4
  %10 = alloca i32, align 4
  %11 = alloca i32, align 4
  store ptr %0, ptr %3, align 8, !tbaa !292
  call void @llvm.dbg.declare(metadata ptr %3, metadata !365, metadata !DIExpression()), !dbg !383
  store ptr %1, ptr %4, align 8, !tbaa !292
  call void @llvm.dbg.declare(metadata ptr %4, metadata !366, metadata !DIExpression()), !dbg !384
  call void @llvm.lifetime.start.p0(i64 4, ptr %5) #6, !dbg !385
  call void @llvm.dbg.declare(metadata ptr %5, metadata !367, metadata !DIExpression()), !dbg !386
  call void @llvm.lifetime.start.p0(i64 4, ptr %6) #6, !dbg !387
  call void @llvm.dbg.declare(metadata ptr %6, metadata !368, metadata !DIExpression()), !dbg !388
  store i32 0, ptr %6, align 4, !dbg !388, !tbaa !286
  br label %12, !dbg !387

12:                                               ; preds = %59, %2
  %13 = load i32, ptr %6, align 4, !dbg !389, !tbaa !286
  %14 = icmp slt i32 %13, 80, !dbg !390
  br i1 %14, label %16, label %15, !dbg !391

15:                                               ; preds = %12
  store i32 2, ptr %7, align 4
  call void @llvm.lifetime.end.p0(i64 4, ptr %6) #6, !dbg !392
  br label %62

16:                                               ; preds = %12
  call void @llvm.lifetime.start.p0(i64 4, ptr %8) #6, !dbg !393
  call void @llvm.dbg.declare(metadata ptr %8, metadata !370, metadata !DIExpression()), !dbg !394
  store i32 0, ptr %8, align 4, !dbg !394, !tbaa !286
  br label %17, !dbg !393

17:                                               ; preds = %55, %16
  %18 = load i32, ptr %8, align 4, !dbg !395, !tbaa !286
  %19 = icmp slt i32 %18, 120, !dbg !396
  br i1 %19, label %21, label %20, !dbg !397

20:                                               ; preds = %17
  store i32 5, ptr %7, align 4
  call void @llvm.lifetime.end.p0(i64 4, ptr %8) #6, !dbg !398
  br label %58

21:                                               ; preds = %17
  %22 = load i32, ptr %6, align 4, !dbg !399, !tbaa !286
  %23 = load i32, ptr %8, align 4, !dbg !400, !tbaa !286
  %24 = load ptr, ptr %3, align 8, !dbg !401, !tbaa !292
  %25 = call noundef i32 @_Z17calc_neighborhoodiiPA80_A120_i(i32 noundef %22, i32 noundef %23, ptr noundef %24), !dbg !402
  store i32 %25, ptr %5, align 4, !dbg !403, !tbaa !286
  call void @llvm.lifetime.start.p0(i64 4, ptr %9) #6, !dbg !404
  call void @llvm.dbg.declare(metadata ptr %9, metadata !374, metadata !DIExpression()), !dbg !405
  %26 = load i32, ptr %5, align 4, !dbg !406, !tbaa !286
  %27 = icmp slt i32 %26, 2, !dbg !407
  br i1 %27, label %31, label %28, !dbg !408

28:                                               ; preds = %21
  %29 = load i32, ptr %5, align 4, !dbg !409, !tbaa !286
  %30 = icmp sgt i32 %29, 3, !dbg !410
  br label %31, !dbg !408

31:                                               ; preds = %28, %21
  %32 = phi i1 [ true, %21 ], [ %30, %28 ]
  %33 = zext i1 %32 to i32, !dbg !406
  store i32 %33, ptr %9, align 4, !dbg !405, !tbaa !286
  %34 = load i32, ptr %9, align 4, !dbg !411, !tbaa !286
  %35 = icmp sgt i32 %34, 0, !dbg !413
  br i1 %35, label %36, label %44, !dbg !414

36:                                               ; preds = %31
  %37 = load ptr, ptr %4, align 8, !dbg !415, !tbaa !292
  %38 = load i32, ptr %6, align 4, !dbg !417, !tbaa !286
  %39 = sext i32 %38 to i64, !dbg !418
  %40 = getelementptr inbounds [80 x [120 x i32]], ptr %37, i64 0, i64 %39, !dbg !418
  %41 = load i32, ptr %8, align 4, !dbg !419, !tbaa !286
  %42 = sext i32 %41 to i64, !dbg !418
  %43 = getelementptr inbounds [120 x i32], ptr %40, i64 0, i64 %42, !dbg !418
  store i32 0, ptr %43, align 4, !dbg !420, !tbaa !286
  store i32 7, ptr %7, align 4
  br label %52, !dbg !421

44:                                               ; preds = %31
  %45 = load ptr, ptr %4, align 8, !dbg !422, !tbaa !292
  %46 = load i32, ptr %6, align 4, !dbg !423, !tbaa !286
  %47 = sext i32 %46 to i64, !dbg !424
  %48 = getelementptr inbounds [80 x [120 x i32]], ptr %45, i64 0, i64 %47, !dbg !424
  %49 = load i32, ptr %8, align 4, !dbg !425, !tbaa !286
  %50 = sext i32 %49 to i64, !dbg !424
  %51 = getelementptr inbounds [120 x i32], ptr %48, i64 0, i64 %50, !dbg !424
  store i32 1, ptr %51, align 4, !dbg !426, !tbaa !286
  store i32 0, ptr %7, align 4, !dbg !427
  br label %52, !dbg !427

52:                                               ; preds = %44, %36
  call void @llvm.lifetime.end.p0(i64 4, ptr %9) #6, !dbg !427
  %53 = load i32, ptr %7, align 4
  switch i32 %53, label %96 [
    i32 0, label %54
    i32 7, label %55
  ]

54:                                               ; preds = %52
  br label %55, !dbg !428

55:                                               ; preds = %54, %52
  %56 = load i32, ptr %8, align 4, !dbg !429, !tbaa !286
  %57 = add nsw i32 %56, 1, !dbg !429
  store i32 %57, ptr %8, align 4, !dbg !429, !tbaa !286
  br label %17, !dbg !398, !llvm.loop !430

58:                                               ; preds = %20
  br label %59, !dbg !432

59:                                               ; preds = %58
  %60 = load i32, ptr %6, align 4, !dbg !433, !tbaa !286
  %61 = add nsw i32 %60, 1, !dbg !433
  store i32 %61, ptr %6, align 4, !dbg !433, !tbaa !286
  br label %12, !dbg !392, !llvm.loop !434

62:                                               ; preds = %15
  call void @llvm.lifetime.start.p0(i64 4, ptr %10) #6, !dbg !436
  call void @llvm.dbg.declare(metadata ptr %10, metadata !377, metadata !DIExpression()), !dbg !437
  store i32 0, ptr %10, align 4, !dbg !437, !tbaa !286
  br label %63, !dbg !436

63:                                               ; preds = %92, %62
  %64 = load i32, ptr %10, align 4, !dbg !438, !tbaa !286
  %65 = icmp slt i32 %64, 80, !dbg !439
  br i1 %65, label %67, label %66, !dbg !440

66:                                               ; preds = %63
  store i32 8, ptr %7, align 4
  call void @llvm.lifetime.end.p0(i64 4, ptr %10) #6, !dbg !441
  br label %95

67:                                               ; preds = %63
  call void @llvm.lifetime.start.p0(i64 4, ptr %11) #6, !dbg !442
  call void @llvm.dbg.declare(metadata ptr %11, metadata !379, metadata !DIExpression()), !dbg !443
  store i32 0, ptr %11, align 4, !dbg !443, !tbaa !286
  br label %68, !dbg !442

68:                                               ; preds = %88, %67
  %69 = load i32, ptr %11, align 4, !dbg !444, !tbaa !286
  %70 = icmp slt i32 %69, 120, !dbg !446
  br i1 %70, label %72, label %71, !dbg !447

71:                                               ; preds = %68
  store i32 11, ptr %7, align 4
  call void @llvm.lifetime.end.p0(i64 4, ptr %11) #6, !dbg !448
  br label %91

72:                                               ; preds = %68
  %73 = load ptr, ptr %4, align 8, !dbg !449, !tbaa !292
  %74 = load i32, ptr %10, align 4, !dbg !451, !tbaa !286
  %75 = sext i32 %74 to i64, !dbg !452
  %76 = getelementptr inbounds [80 x [120 x i32]], ptr %73, i64 0, i64 %75, !dbg !452
  %77 = load i32, ptr %11, align 4, !dbg !453, !tbaa !286
  %78 = sext i32 %77 to i64, !dbg !452
  %79 = getelementptr inbounds [120 x i32], ptr %76, i64 0, i64 %78, !dbg !452
  %80 = load i32, ptr %79, align 4, !dbg !452, !tbaa !286
  %81 = load ptr, ptr %3, align 8, !dbg !454, !tbaa !292
  %82 = load i32, ptr %10, align 4, !dbg !455, !tbaa !286
  %83 = sext i32 %82 to i64, !dbg !456
  %84 = getelementptr inbounds [80 x [120 x i32]], ptr %81, i64 0, i64 %83, !dbg !456
  %85 = load i32, ptr %11, align 4, !dbg !457, !tbaa !286
  %86 = sext i32 %85 to i64, !dbg !456
  %87 = getelementptr inbounds [120 x i32], ptr %84, i64 0, i64 %86, !dbg !456
  store i32 %80, ptr %87, align 4, !dbg !458, !tbaa !286
  br label %88, !dbg !459

88:                                               ; preds = %72
  %89 = load i32, ptr %11, align 4, !dbg !460, !tbaa !286
  %90 = add nsw i32 %89, 1, !dbg !460
  store i32 %90, ptr %11, align 4, !dbg !460, !tbaa !286
  br label %68, !dbg !448, !llvm.loop !461

91:                                               ; preds = %71
  br label %92, !dbg !463

92:                                               ; preds = %91
  %93 = load i32, ptr %10, align 4, !dbg !464, !tbaa !286
  %94 = add nsw i32 %93, 1, !dbg !464
  store i32 %94, ptr %10, align 4, !dbg !464, !tbaa !286
  br label %63, !dbg !441, !llvm.loop !465

95:                                               ; preds = %66
  call void @llvm.lifetime.end.p0(i64 4, ptr %5) #6, !dbg !467
  ret void, !dbg !467

96:                                               ; preds = %52
  unreachable
}

; Function Attrs: mustprogress uwtable
define dso_local void @_Z11printSquarePA80_A120_iii(ptr noundef %0, i32 noundef %1, i32 noundef %2) #4 !dbg !468 {
  %4 = alloca ptr, align 8
  %5 = alloca i32, align 4
  %6 = alloca i32, align 4
  %7 = alloca i32, align 4
  %8 = alloca i32, align 4
  %9 = alloca i32, align 4
  %10 = alloca i32, align 4
  %11 = alloca i32, align 4
  %12 = alloca i32, align 4
  %13 = alloca i32, align 4
  store ptr %0, ptr %4, align 8, !tbaa !292
  call void @llvm.dbg.declare(metadata ptr %4, metadata !472, metadata !DIExpression()), !dbg !491
  store i32 %1, ptr %5, align 4, !tbaa !286
  call void @llvm.dbg.declare(metadata ptr %5, metadata !473, metadata !DIExpression()), !dbg !492
  store i32 %2, ptr %6, align 4, !tbaa !286
  call void @llvm.dbg.declare(metadata ptr %6, metadata !474, metadata !DIExpression()), !dbg !493
  call void @llvm.lifetime.start.p0(i64 4, ptr %7) #6, !dbg !494
  call void @llvm.dbg.declare(metadata ptr %7, metadata !475, metadata !DIExpression()), !dbg !495
  store i32 0, ptr %7, align 4, !dbg !495, !tbaa !286
  call void @llvm.lifetime.start.p0(i64 4, ptr %8) #6, !dbg !496
  call void @llvm.dbg.declare(metadata ptr %8, metadata !476, metadata !DIExpression()), !dbg !497
  store i32 10040012, ptr %8, align 4, !dbg !497, !tbaa !286
  %14 = load ptr, ptr %4, align 8, !dbg !498, !tbaa !292
  %15 = load i32, ptr %5, align 4, !dbg !499, !tbaa !286
  %16 = sext i32 %15 to i64, !dbg !500
  %17 = getelementptr inbounds [80 x [120 x i32]], ptr %14, i64 0, i64 %16, !dbg !500
  %18 = load i32, ptr %6, align 4, !dbg !501, !tbaa !286
  %19 = sext i32 %18 to i64, !dbg !500
  %20 = getelementptr inbounds [120 x i32], ptr %17, i64 0, i64 %19, !dbg !500
  %21 = load i32, ptr %20, align 4, !dbg !500, !tbaa !286
  %22 = icmp eq i32 %21, 1, !dbg !502
  br i1 %22, label %23, label %51, !dbg !503

23:                                               ; preds = %3
  call void @llvm.lifetime.start.p0(i64 4, ptr %9) #6, !dbg !504
  call void @llvm.dbg.declare(metadata ptr %9, metadata !477, metadata !DIExpression()), !dbg !505
  store i32 0, ptr %9, align 4, !dbg !505, !tbaa !286
  br label %24, !dbg !504

24:                                               ; preds = %47, %23
  %25 = load i32, ptr %9, align 4, !dbg !506, !tbaa !286
  %26 = icmp slt i32 %25, 10, !dbg !507
  br i1 %26, label %28, label %27, !dbg !508

27:                                               ; preds = %24
  store i32 2, ptr %10, align 4
  call void @llvm.lifetime.end.p0(i64 4, ptr %9) #6, !dbg !509
  br label %50

28:                                               ; preds = %24
  call void @llvm.lifetime.start.p0(i64 4, ptr %11) #6, !dbg !510
  call void @llvm.dbg.declare(metadata ptr %11, metadata !481, metadata !DIExpression()), !dbg !511
  store i32 0, ptr %11, align 4, !dbg !511, !tbaa !286
  br label %29, !dbg !510

29:                                               ; preds = %43, %28
  %30 = load i32, ptr %11, align 4, !dbg !512, !tbaa !286
  %31 = icmp slt i32 %30, 10, !dbg !514
  br i1 %31, label %33, label %32, !dbg !515

32:                                               ; preds = %29
  store i32 5, ptr %10, align 4
  call void @llvm.lifetime.end.p0(i64 4, ptr %11) #6, !dbg !516
  br label %46

33:                                               ; preds = %29
  %34 = load i32, ptr %5, align 4, !dbg !517, !tbaa !286
  %35 = mul nsw i32 %34, 10, !dbg !519
  %36 = load i32, ptr %9, align 4, !dbg !520, !tbaa !286
  %37 = add nsw i32 %35, %36, !dbg !521
  %38 = load i32, ptr %6, align 4, !dbg !522, !tbaa !286
  %39 = mul nsw i32 %38, 10, !dbg !523
  %40 = load i32, ptr %11, align 4, !dbg !524, !tbaa !286
  %41 = add nsw i32 %39, %40, !dbg !525
  %42 = load i32, ptr %8, align 4, !dbg !526, !tbaa !286
  call void @_Z11simPutPixeliii(i32 noundef %37, i32 noundef %41, i32 noundef %42), !dbg !527
  br label %43, !dbg !528

43:                                               ; preds = %33
  %44 = load i32, ptr %11, align 4, !dbg !529, !tbaa !286
  %45 = add nsw i32 %44, 1, !dbg !529
  store i32 %45, ptr %11, align 4, !dbg !529, !tbaa !286
  br label %29, !dbg !516, !llvm.loop !530

46:                                               ; preds = %32
  br label %47, !dbg !532

47:                                               ; preds = %46
  %48 = load i32, ptr %9, align 4, !dbg !533, !tbaa !286
  %49 = add nsw i32 %48, 1, !dbg !533
  store i32 %49, ptr %9, align 4, !dbg !533, !tbaa !286
  br label %24, !dbg !509, !llvm.loop !534

50:                                               ; preds = %27
  store i32 1, ptr %10, align 4
  br label %79, !dbg !536

51:                                               ; preds = %3
  call void @llvm.lifetime.start.p0(i64 4, ptr %12) #6, !dbg !537
  call void @llvm.dbg.declare(metadata ptr %12, metadata !485, metadata !DIExpression()), !dbg !538
  store i32 0, ptr %12, align 4, !dbg !538, !tbaa !286
  br label %52, !dbg !537

52:                                               ; preds = %75, %51
  %53 = load i32, ptr %12, align 4, !dbg !539, !tbaa !286
  %54 = icmp slt i32 %53, 10, !dbg !540
  br i1 %54, label %56, label %55, !dbg !541

55:                                               ; preds = %52
  store i32 8, ptr %10, align 4
  call void @llvm.lifetime.end.p0(i64 4, ptr %12) #6, !dbg !542
  br label %78

56:                                               ; preds = %52
  call void @llvm.lifetime.start.p0(i64 4, ptr %13) #6, !dbg !543
  call void @llvm.dbg.declare(metadata ptr %13, metadata !487, metadata !DIExpression()), !dbg !544
  store i32 0, ptr %13, align 4, !dbg !544, !tbaa !286
  br label %57, !dbg !543

57:                                               ; preds = %71, %56
  %58 = load i32, ptr %13, align 4, !dbg !545, !tbaa !286
  %59 = icmp slt i32 %58, 10, !dbg !547
  br i1 %59, label %61, label %60, !dbg !548

60:                                               ; preds = %57
  store i32 11, ptr %10, align 4
  call void @llvm.lifetime.end.p0(i64 4, ptr %13) #6, !dbg !549
  br label %74

61:                                               ; preds = %57
  %62 = load i32, ptr %5, align 4, !dbg !550, !tbaa !286
  %63 = mul nsw i32 %62, 10, !dbg !552
  %64 = load i32, ptr %12, align 4, !dbg !553, !tbaa !286
  %65 = add nsw i32 %63, %64, !dbg !554
  %66 = load i32, ptr %6, align 4, !dbg !555, !tbaa !286
  %67 = mul nsw i32 %66, 10, !dbg !556
  %68 = load i32, ptr %13, align 4, !dbg !557, !tbaa !286
  %69 = add nsw i32 %67, %68, !dbg !558
  %70 = load i32, ptr %7, align 4, !dbg !559, !tbaa !286
  call void @_Z11simPutPixeliii(i32 noundef %65, i32 noundef %69, i32 noundef %70), !dbg !560
  br label %71, !dbg !561

71:                                               ; preds = %61
  %72 = load i32, ptr %13, align 4, !dbg !562, !tbaa !286
  %73 = add nsw i32 %72, 1, !dbg !562
  store i32 %73, ptr %13, align 4, !dbg !562, !tbaa !286
  br label %57, !dbg !549, !llvm.loop !563

74:                                               ; preds = %60
  br label %75, !dbg !565

75:                                               ; preds = %74
  %76 = load i32, ptr %12, align 4, !dbg !566, !tbaa !286
  %77 = add nsw i32 %76, 1, !dbg !566
  store i32 %77, ptr %12, align 4, !dbg !566, !tbaa !286
  br label %52, !dbg !542, !llvm.loop !567

78:                                               ; preds = %55
  store i32 0, ptr %10, align 4, !dbg !569
  br label %79, !dbg !569

79:                                               ; preds = %78, %50
  call void @llvm.lifetime.end.p0(i64 4, ptr %8) #6, !dbg !569
  call void @llvm.lifetime.end.p0(i64 4, ptr %7) #6, !dbg !569
  %80 = load i32, ptr %10, align 4
  switch i32 %80, label %82 [
    i32 0, label %81
    i32 1, label %81
  ]

81:                                               ; preds = %79, %79
  ret void, !dbg !569

82:                                               ; preds = %79
  unreachable
}

declare !dbg !570 void @_Z11simPutPixeliii(i32 noundef, i32 noundef, i32 noundef) #5

; Function Attrs: mustprogress uwtable
define dso_local void @_Z3appv() #4 !dbg !574 {
  %1 = alloca [80 x [120 x i32]], align 16
  %2 = alloca [80 x [120 x i32]], align 16
  %3 = alloca i32, align 4
  %4 = alloca i32, align 4
  %5 = alloca i32, align 4
  %6 = alloca i32, align 4
  %7 = alloca i32, align 4
  %8 = alloca i32, align 4
  %9 = alloca i32, align 4
  %10 = alloca i32, align 4
  call void @llvm.lifetime.start.p0(i64 38400, ptr %1) #6, !dbg !598
  call void @llvm.dbg.declare(metadata ptr %1, metadata !576, metadata !DIExpression()), !dbg !599
  call void @llvm.lifetime.start.p0(i64 38400, ptr %2) #6, !dbg !600
  call void @llvm.dbg.declare(metadata ptr %2, metadata !577, metadata !DIExpression()), !dbg !601
  call void @llvm.lifetime.start.p0(i64 4, ptr %3) #6, !dbg !602
  call void @llvm.dbg.declare(metadata ptr %3, metadata !578, metadata !DIExpression()), !dbg !603
  store i32 100, ptr %3, align 4, !dbg !603, !tbaa !286
  call void @llvm.lifetime.start.p0(i64 4, ptr %4) #6, !dbg !604
  call void @llvm.dbg.declare(metadata ptr %4, metadata !579, metadata !DIExpression()), !dbg !605
  store i32 0, ptr %4, align 4, !dbg !605, !tbaa !286
  br label %11, !dbg !604

11:                                               ; preds = %47, %0
  %12 = load i32, ptr %4, align 4, !dbg !606, !tbaa !286
  %13 = icmp slt i32 %12, 80, !dbg !607
  br i1 %13, label %15, label %14, !dbg !608

14:                                               ; preds = %11
  store i32 2, ptr %5, align 4
  call void @llvm.lifetime.end.p0(i64 4, ptr %4) #6, !dbg !609
  br label %50

15:                                               ; preds = %11
  call void @llvm.lifetime.start.p0(i64 4, ptr %6) #6, !dbg !610
  call void @llvm.dbg.declare(metadata ptr %6, metadata !581, metadata !DIExpression()), !dbg !611
  store i32 0, ptr %6, align 4, !dbg !611, !tbaa !286
  br label %16, !dbg !610

16:                                               ; preds = %43, %15
  %17 = load i32, ptr %6, align 4, !dbg !612, !tbaa !286
  %18 = icmp slt i32 %17, 120, !dbg !613
  br i1 %18, label %20, label %19, !dbg !614

19:                                               ; preds = %16
  store i32 5, ptr %5, align 4
  call void @llvm.lifetime.end.p0(i64 4, ptr %6) #6, !dbg !615
  br label %46

20:                                               ; preds = %16
  call void @llvm.lifetime.start.p0(i64 4, ptr %7) #6, !dbg !616
  call void @llvm.dbg.declare(metadata ptr %7, metadata !585, metadata !DIExpression()), !dbg !617
  %21 = call noundef i32 @_Z7simRandv(), !dbg !618
  %22 = load i32, ptr %3, align 4, !dbg !619, !tbaa !286
  %23 = srem i32 %21, %22, !dbg !620
  store i32 %23, ptr %7, align 4, !dbg !617, !tbaa !286
  %24 = load i32, ptr %7, align 4, !dbg !621, !tbaa !286
  %25 = icmp slt i32 %24, 1, !dbg !623
  br i1 %25, label %26, label %33, !dbg !624

26:                                               ; preds = %20
  %27 = load i32, ptr %4, align 4, !dbg !625, !tbaa !286
  %28 = sext i32 %27 to i64, !dbg !627
  %29 = getelementptr inbounds [80 x [120 x i32]], ptr %1, i64 0, i64 %28, !dbg !627
  %30 = load i32, ptr %6, align 4, !dbg !628, !tbaa !286
  %31 = sext i32 %30 to i64, !dbg !627
  %32 = getelementptr inbounds [120 x i32], ptr %29, i64 0, i64 %31, !dbg !627
  store i32 1, ptr %32, align 4, !dbg !629, !tbaa !286
  store i32 7, ptr %5, align 4
  br label %40, !dbg !630

33:                                               ; preds = %20
  %34 = load i32, ptr %4, align 4, !dbg !631, !tbaa !286
  %35 = sext i32 %34 to i64, !dbg !632
  %36 = getelementptr inbounds [80 x [120 x i32]], ptr %1, i64 0, i64 %35, !dbg !632
  %37 = load i32, ptr %6, align 4, !dbg !633, !tbaa !286
  %38 = sext i32 %37 to i64, !dbg !632
  %39 = getelementptr inbounds [120 x i32], ptr %36, i64 0, i64 %38, !dbg !632
  store i32 0, ptr %39, align 4, !dbg !634, !tbaa !286
  store i32 0, ptr %5, align 4, !dbg !635
  br label %40, !dbg !635

40:                                               ; preds = %33, %26
  call void @llvm.lifetime.end.p0(i64 4, ptr %7) #6, !dbg !635
  %41 = load i32, ptr %5, align 4
  switch i32 %41, label %80 [
    i32 0, label %42
    i32 7, label %43
  ]

42:                                               ; preds = %40
  br label %43, !dbg !636

43:                                               ; preds = %42, %40
  %44 = load i32, ptr %6, align 4, !dbg !637, !tbaa !286
  %45 = add nsw i32 %44, 1, !dbg !637
  store i32 %45, ptr %6, align 4, !dbg !637, !tbaa !286
  br label %16, !dbg !615, !llvm.loop !638

46:                                               ; preds = %19
  br label %47, !dbg !640

47:                                               ; preds = %46
  %48 = load i32, ptr %4, align 4, !dbg !641, !tbaa !286
  %49 = add nsw i32 %48, 1, !dbg !641
  store i32 %49, ptr %4, align 4, !dbg !641, !tbaa !286
  br label %11, !dbg !609, !llvm.loop !642

50:                                               ; preds = %14
  call void @llvm.lifetime.start.p0(i64 4, ptr %8) #6, !dbg !644
  call void @llvm.dbg.declare(metadata ptr %8, metadata !588, metadata !DIExpression()), !dbg !645
  store i32 0, ptr %8, align 4, !dbg !645, !tbaa !286
  br label %51, !dbg !644

51:                                               ; preds = %76, %50
  %52 = load i32, ptr %8, align 4, !dbg !646, !tbaa !286
  %53 = icmp slt i32 %52, 1000, !dbg !647
  br i1 %53, label %55, label %54, !dbg !648

54:                                               ; preds = %51
  store i32 8, ptr %5, align 4
  call void @llvm.lifetime.end.p0(i64 4, ptr %8) #6, !dbg !649
  br label %79

55:                                               ; preds = %51
  call void @llvm.lifetime.start.p0(i64 4, ptr %9) #6, !dbg !650
  call void @llvm.dbg.declare(metadata ptr %9, metadata !590, metadata !DIExpression()), !dbg !651
  store i32 0, ptr %9, align 4, !dbg !651, !tbaa !286
  br label %56, !dbg !650

56:                                               ; preds = %72, %55
  %57 = load i32, ptr %9, align 4, !dbg !652, !tbaa !286
  %58 = icmp slt i32 %57, 120, !dbg !653
  br i1 %58, label %60, label %59, !dbg !654

59:                                               ; preds = %56
  store i32 11, ptr %5, align 4
  call void @llvm.lifetime.end.p0(i64 4, ptr %9) #6, !dbg !655
  br label %75

60:                                               ; preds = %56
  call void @llvm.lifetime.start.p0(i64 4, ptr %10) #6, !dbg !656
  call void @llvm.dbg.declare(metadata ptr %10, metadata !594, metadata !DIExpression()), !dbg !657
  store i32 0, ptr %10, align 4, !dbg !657, !tbaa !286
  br label %61, !dbg !656

61:                                               ; preds = %68, %60
  %62 = load i32, ptr %10, align 4, !dbg !658, !tbaa !286
  %63 = icmp slt i32 %62, 80, !dbg !660
  br i1 %63, label %65, label %64, !dbg !661

64:                                               ; preds = %61
  store i32 14, ptr %5, align 4
  call void @llvm.lifetime.end.p0(i64 4, ptr %10) #6, !dbg !662
  br label %71

65:                                               ; preds = %61
  %66 = load i32, ptr %10, align 4, !dbg !663, !tbaa !286
  %67 = load i32, ptr %9, align 4, !dbg !665, !tbaa !286
  call void @_Z11printSquarePA80_A120_iii(ptr noundef %1, i32 noundef %66, i32 noundef %67), !dbg !666
  br label %68, !dbg !667

68:                                               ; preds = %65
  %69 = load i32, ptr %10, align 4, !dbg !668, !tbaa !286
  %70 = add nsw i32 %69, 1, !dbg !668
  store i32 %70, ptr %10, align 4, !dbg !668, !tbaa !286
  br label %61, !dbg !662, !llvm.loop !669

71:                                               ; preds = %64
  br label %72, !dbg !671

72:                                               ; preds = %71
  %73 = load i32, ptr %9, align 4, !dbg !672, !tbaa !286
  %74 = add nsw i32 %73, 1, !dbg !672
  store i32 %74, ptr %9, align 4, !dbg !672, !tbaa !286
  br label %56, !dbg !655, !llvm.loop !673

75:                                               ; preds = %59
  call void @_Z9fill_nextPA80_A120_iS1_(ptr noundef %1, ptr noundef %2), !dbg !675
  call void @_Z8simFlushv(), !dbg !676
  br label %76, !dbg !677

76:                                               ; preds = %75
  %77 = load i32, ptr %8, align 4, !dbg !678, !tbaa !286
  %78 = add nsw i32 %77, 1, !dbg !678
  store i32 %78, ptr %8, align 4, !dbg !678, !tbaa !286
  br label %51, !dbg !649, !llvm.loop !679

79:                                               ; preds = %54
  call void @llvm.lifetime.end.p0(i64 4, ptr %3) #6, !dbg !681
  call void @llvm.lifetime.end.p0(i64 38400, ptr %2) #6, !dbg !681
  call void @llvm.lifetime.end.p0(i64 38400, ptr %1) #6, !dbg !681
  ret void, !dbg !681

80:                                               ; preds = %40
  unreachable
}

declare !dbg !682 noundef i32 @_Z7simRandv() #5

declare !dbg !683 void @_Z8simFlushv() #5

attributes #0 = { mustprogress nounwind uwtable "frame-pointer"="none" "min-legal-vector-width"="0" "no-trapping-math"="true" "stack-protector-buffer-size"="8" "target-cpu"="x86-64" "target-features"="+cx8,+fxsr,+mmx,+sse,+sse2,+x87" "tune-cpu"="generic" }
attributes #1 = { mustprogress nocallback nofree nosync nounwind readnone speculatable willreturn }
attributes #2 = { argmemonly mustprogress nocallback nofree nosync nounwind willreturn }
attributes #3 = { argmemonly mustprogress nocallback nofree nounwind willreturn }
attributes #4 = { mustprogress uwtable "frame-pointer"="none" "min-legal-vector-width"="0" "no-trapping-math"="true" "stack-protector-buffer-size"="8" "target-cpu"="x86-64" "target-features"="+cx8,+fxsr,+mmx,+sse,+sse2,+x87" "tune-cpu"="generic" }
attributes #5 = { "frame-pointer"="none" "no-trapping-math"="true" "stack-protector-buffer-size"="8" "target-cpu"="x86-64" "target-features"="+cx8,+fxsr,+mmx,+sse,+sse2,+x87" "tune-cpu"="generic" }
attributes #6 = { nounwind }

!llvm.dbg.cu = !{!0}
!llvm.module.flags = !{!250, !251, !252, !253, !254, !255}
!llvm.ident = !{!256}

!0 = distinct !DICompileUnit(language: DW_LANG_C_plus_plus_14, file: !1, producer: "clang version 15.0.0 (https://github.com/llvm/llvm-project.git 4ba6a9c9f65bbc8bd06e3652cb20fd4dfc846137)", isOptimized: true, runtimeVersion: 0, emissionKind: FullDebug, imports: !2, splitDebugInlining: false, nameTableKind: None)
!1 = !DIFile(filename: "<source>", directory: "/app")
!2 = !{!3, !11, !15, !22, !26, !31, !33, !42, !46, !50, !65, !69, !73, !77, !81, !86, !90, !94, !98, !102, !110, !114, !118, !120, !124, !128, !133, !139, !143, !147, !149, !157, !161, !169, !171, !175, !179, !183, !187, !192, !197, !202, !203, !204, !205, !207, !208, !209, !210, !211, !212, !213, !215, !216, !217, !218, !219, !220, !221, !226, !227, !228, !229, !230, !231, !232, !233, !234, !235, !236, !237, !238, !239, !240, !241, !242, !243, !244, !245, !246, !247, !248, !249}
!3 = !DIImportedEntity(tag: DW_TAG_imported_declaration, scope: !4, entity: !5, file: !10, line: 52)
!4 = !DINamespace(name: "std", scope: null)
!5 = !DISubprogram(name: "abs", scope: !6, file: !6, line: 840, type: !7, flags: DIFlagPrototyped, spFlags: DISPFlagOptimized)
!6 = !DIFile(filename: "/usr/include/stdlib.h", directory: "")
!7 = !DISubroutineType(types: !8)
!8 = !{!9, !9}
!9 = !DIBasicType(name: "int", size: 32, encoding: DW_ATE_signed)
!10 = !DIFile(filename: "/opt/compiler-explorer/gcc-12.2.0/lib/gcc/x86_64-linux-gnu/12.2.0/../../../../include/c++/12.2.0/bits/std_abs.h", directory: "")
!11 = !DIImportedEntity(tag: DW_TAG_imported_declaration, scope: !4, entity: !12, file: !14, line: 127)
!12 = !DIDerivedType(tag: DW_TAG_typedef, name: "div_t", file: !6, line: 62, baseType: !13)
!13 = !DICompositeType(tag: DW_TAG_structure_type, file: !6, line: 58, size: 64, flags: DIFlagFwdDecl, identifier: "_ZTS5div_t")
!14 = !DIFile(filename: "/opt/compiler-explorer/gcc-12.2.0/lib/gcc/x86_64-linux-gnu/12.2.0/../../../../include/c++/12.2.0/cstdlib", directory: "")
!15 = !DIImportedEntity(tag: DW_TAG_imported_declaration, scope: !4, entity: !16, file: !14, line: 128)
!16 = !DIDerivedType(tag: DW_TAG_typedef, name: "ldiv_t", file: !6, line: 70, baseType: !17)
!17 = distinct !DICompositeType(tag: DW_TAG_structure_type, file: !6, line: 66, size: 128, flags: DIFlagTypePassByValue, elements: !18, identifier: "_ZTS6ldiv_t")
!18 = !{!19, !21}
!19 = !DIDerivedType(tag: DW_TAG_member, name: "quot", scope: !17, file: !6, line: 68, baseType: !20, size: 64)
!20 = !DIBasicType(name: "long", size: 64, encoding: DW_ATE_signed)
!21 = !DIDerivedType(tag: DW_TAG_member, name: "rem", scope: !17, file: !6, line: 69, baseType: !20, size: 64, offset: 64)
!22 = !DIImportedEntity(tag: DW_TAG_imported_declaration, scope: !4, entity: !23, file: !14, line: 130)
!23 = !DISubprogram(name: "abort", scope: !6, file: !6, line: 591, type: !24, flags: DIFlagPrototyped | DIFlagNoReturn, spFlags: DISPFlagOptimized)
!24 = !DISubroutineType(types: !25)
!25 = !{null}
!26 = !DIImportedEntity(tag: DW_TAG_imported_declaration, scope: !4, entity: !27, file: !14, line: 134)
!27 = !DISubprogram(name: "atexit", scope: !6, file: !6, line: 595, type: !28, flags: DIFlagPrototyped, spFlags: DISPFlagOptimized)
!28 = !DISubroutineType(types: !29)
!29 = !{!9, !30}
!30 = !DIDerivedType(tag: DW_TAG_pointer_type, baseType: !24, size: 64)
!31 = !DIImportedEntity(tag: DW_TAG_imported_declaration, scope: !4, entity: !32, file: !14, line: 137)
!32 = !DISubprogram(name: "at_quick_exit", scope: !6, file: !6, line: 600, type: !28, flags: DIFlagPrototyped, spFlags: DISPFlagOptimized)
!33 = !DIImportedEntity(tag: DW_TAG_imported_declaration, scope: !4, entity: !34, file: !14, line: 140)
!34 = !DISubprogram(name: "atof", scope: !35, file: !35, line: 25, type: !36, flags: DIFlagPrototyped, spFlags: DISPFlagOptimized)
!35 = !DIFile(filename: "/usr/include/x86_64-linux-gnu/bits/stdlib-float.h", directory: "")
!36 = !DISubroutineType(types: !37)
!37 = !{!38, !39}
!38 = !DIBasicType(name: "double", size: 64, encoding: DW_ATE_float)
!39 = !DIDerivedType(tag: DW_TAG_pointer_type, baseType: !40, size: 64)
!40 = !DIDerivedType(tag: DW_TAG_const_type, baseType: !41)
!41 = !DIBasicType(name: "char", size: 8, encoding: DW_ATE_signed_char)
!42 = !DIImportedEntity(tag: DW_TAG_imported_declaration, scope: !4, entity: !43, file: !14, line: 141)
!43 = !DISubprogram(name: "atoi", scope: !6, file: !6, line: 361, type: !44, flags: DIFlagPrototyped, spFlags: DISPFlagOptimized)
!44 = !DISubroutineType(types: !45)
!45 = !{!9, !39}
!46 = !DIImportedEntity(tag: DW_TAG_imported_declaration, scope: !4, entity: !47, file: !14, line: 142)
!47 = !DISubprogram(name: "atol", scope: !6, file: !6, line: 366, type: !48, flags: DIFlagPrototyped, spFlags: DISPFlagOptimized)
!48 = !DISubroutineType(types: !49)
!49 = !{!20, !39}
!50 = !DIImportedEntity(tag: DW_TAG_imported_declaration, scope: !4, entity: !51, file: !14, line: 143)
!51 = !DISubprogram(name: "bsearch", scope: !52, file: !52, line: 20, type: !53, flags: DIFlagPrototyped, spFlags: DISPFlagOptimized)
!52 = !DIFile(filename: "/usr/include/x86_64-linux-gnu/bits/stdlib-bsearch.h", directory: "")
!53 = !DISubroutineType(types: !54)
!54 = !{!55, !56, !56, !58, !58, !61}
!55 = !DIDerivedType(tag: DW_TAG_pointer_type, baseType: null, size: 64)
!56 = !DIDerivedType(tag: DW_TAG_pointer_type, baseType: !57, size: 64)
!57 = !DIDerivedType(tag: DW_TAG_const_type, baseType: null)
!58 = !DIDerivedType(tag: DW_TAG_typedef, name: "size_t", file: !59, line: 46, baseType: !60)
!59 = !DIFile(filename: "/opt/compiler-explorer/clang-15.0.0/lib/clang/15.0.0/include/stddef.h", directory: "")
!60 = !DIBasicType(name: "unsigned long", size: 64, encoding: DW_ATE_unsigned)
!61 = !DIDerivedType(tag: DW_TAG_typedef, name: "__compar_fn_t", file: !6, line: 808, baseType: !62)
!62 = !DIDerivedType(tag: DW_TAG_pointer_type, baseType: !63, size: 64)
!63 = !DISubroutineType(types: !64)
!64 = !{!9, !56, !56}
!65 = !DIImportedEntity(tag: DW_TAG_imported_declaration, scope: !4, entity: !66, file: !14, line: 144)
!66 = !DISubprogram(name: "calloc", scope: !6, file: !6, line: 542, type: !67, flags: DIFlagPrototyped, spFlags: DISPFlagOptimized)
!67 = !DISubroutineType(types: !68)
!68 = !{!55, !58, !58}
!69 = !DIImportedEntity(tag: DW_TAG_imported_declaration, scope: !4, entity: !70, file: !14, line: 145)
!70 = !DISubprogram(name: "div", scope: !6, file: !6, line: 852, type: !71, flags: DIFlagPrototyped, spFlags: DISPFlagOptimized)
!71 = !DISubroutineType(types: !72)
!72 = !{!12, !9, !9}
!73 = !DIImportedEntity(tag: DW_TAG_imported_declaration, scope: !4, entity: !74, file: !14, line: 146)
!74 = !DISubprogram(name: "exit", scope: !6, file: !6, line: 617, type: !75, flags: DIFlagPrototyped | DIFlagNoReturn, spFlags: DISPFlagOptimized)
!75 = !DISubroutineType(types: !76)
!76 = !{null, !9}
!77 = !DIImportedEntity(tag: DW_TAG_imported_declaration, scope: !4, entity: !78, file: !14, line: 147)
!78 = !DISubprogram(name: "free", scope: !6, file: !6, line: 565, type: !79, flags: DIFlagPrototyped, spFlags: DISPFlagOptimized)
!79 = !DISubroutineType(types: !80)
!80 = !{null, !55}
!81 = !DIImportedEntity(tag: DW_TAG_imported_declaration, scope: !4, entity: !82, file: !14, line: 148)
!82 = !DISubprogram(name: "getenv", scope: !6, file: !6, line: 634, type: !83, flags: DIFlagPrototyped, spFlags: DISPFlagOptimized)
!83 = !DISubroutineType(types: !84)
!84 = !{!85, !39}
!85 = !DIDerivedType(tag: DW_TAG_pointer_type, baseType: !41, size: 64)
!86 = !DIImportedEntity(tag: DW_TAG_imported_declaration, scope: !4, entity: !87, file: !14, line: 149)
!87 = !DISubprogram(name: "labs", scope: !6, file: !6, line: 841, type: !88, flags: DIFlagPrototyped, spFlags: DISPFlagOptimized)
!88 = !DISubroutineType(types: !89)
!89 = !{!20, !20}
!90 = !DIImportedEntity(tag: DW_TAG_imported_declaration, scope: !4, entity: !91, file: !14, line: 150)
!91 = !DISubprogram(name: "ldiv", scope: !6, file: !6, line: 854, type: !92, flags: DIFlagPrototyped, spFlags: DISPFlagOptimized)
!92 = !DISubroutineType(types: !93)
!93 = !{!16, !20, !20}
!94 = !DIImportedEntity(tag: DW_TAG_imported_declaration, scope: !4, entity: !95, file: !14, line: 151)
!95 = !DISubprogram(name: "malloc", scope: !6, file: !6, line: 539, type: !96, flags: DIFlagPrototyped, spFlags: DISPFlagOptimized)
!96 = !DISubroutineType(types: !97)
!97 = !{!55, !58}
!98 = !DIImportedEntity(tag: DW_TAG_imported_declaration, scope: !4, entity: !99, file: !14, line: 153)
!99 = !DISubprogram(name: "mblen", scope: !6, file: !6, line: 922, type: !100, flags: DIFlagPrototyped, spFlags: DISPFlagOptimized)
!100 = !DISubroutineType(types: !101)
!101 = !{!9, !39, !58}
!102 = !DIImportedEntity(tag: DW_TAG_imported_declaration, scope: !4, entity: !103, file: !14, line: 154)
!103 = !DISubprogram(name: "mbstowcs", scope: !6, file: !6, line: 933, type: !104, flags: DIFlagPrototyped, spFlags: DISPFlagOptimized)
!104 = !DISubroutineType(types: !105)
!105 = !{!58, !106, !109, !58}
!106 = !DIDerivedType(tag: DW_TAG_restrict_type, baseType: !107)
!107 = !DIDerivedType(tag: DW_TAG_pointer_type, baseType: !108, size: 64)
!108 = !DIBasicType(name: "wchar_t", size: 32, encoding: DW_ATE_signed)
!109 = !DIDerivedType(tag: DW_TAG_restrict_type, baseType: !39)
!110 = !DIImportedEntity(tag: DW_TAG_imported_declaration, scope: !4, entity: !111, file: !14, line: 155)
!111 = !DISubprogram(name: "mbtowc", scope: !6, file: !6, line: 925, type: !112, flags: DIFlagPrototyped, spFlags: DISPFlagOptimized)
!112 = !DISubroutineType(types: !113)
!113 = !{!9, !106, !109, !58}
!114 = !DIImportedEntity(tag: DW_TAG_imported_declaration, scope: !4, entity: !115, file: !14, line: 157)
!115 = !DISubprogram(name: "qsort", scope: !6, file: !6, line: 830, type: !116, flags: DIFlagPrototyped, spFlags: DISPFlagOptimized)
!116 = !DISubroutineType(types: !117)
!117 = !{null, !55, !58, !58, !61}
!118 = !DIImportedEntity(tag: DW_TAG_imported_declaration, scope: !4, entity: !119, file: !14, line: 160)
!119 = !DISubprogram(name: "quick_exit", scope: !6, file: !6, line: 623, type: !75, flags: DIFlagPrototyped | DIFlagNoReturn, spFlags: DISPFlagOptimized)
!120 = !DIImportedEntity(tag: DW_TAG_imported_declaration, scope: !4, entity: !121, file: !14, line: 163)
!121 = !DISubprogram(name: "rand", scope: !6, file: !6, line: 453, type: !122, flags: DIFlagPrototyped, spFlags: DISPFlagOptimized)
!122 = !DISubroutineType(types: !123)
!123 = !{!9}
!124 = !DIImportedEntity(tag: DW_TAG_imported_declaration, scope: !4, entity: !125, file: !14, line: 164)
!125 = !DISubprogram(name: "realloc", scope: !6, file: !6, line: 550, type: !126, flags: DIFlagPrototyped, spFlags: DISPFlagOptimized)
!126 = !DISubroutineType(types: !127)
!127 = !{!55, !55, !58}
!128 = !DIImportedEntity(tag: DW_TAG_imported_declaration, scope: !4, entity: !129, file: !14, line: 165)
!129 = !DISubprogram(name: "srand", scope: !6, file: !6, line: 455, type: !130, flags: DIFlagPrototyped, spFlags: DISPFlagOptimized)
!130 = !DISubroutineType(types: !131)
!131 = !{null, !132}
!132 = !DIBasicType(name: "unsigned int", size: 32, encoding: DW_ATE_unsigned)
!133 = !DIImportedEntity(tag: DW_TAG_imported_declaration, scope: !4, entity: !134, file: !14, line: 166)
!134 = !DISubprogram(name: "strtod", scope: !6, file: !6, line: 117, type: !135, flags: DIFlagPrototyped, spFlags: DISPFlagOptimized)
!135 = !DISubroutineType(types: !136)
!136 = !{!38, !109, !137}
!137 = !DIDerivedType(tag: DW_TAG_restrict_type, baseType: !138)
!138 = !DIDerivedType(tag: DW_TAG_pointer_type, baseType: !85, size: 64)
!139 = !DIImportedEntity(tag: DW_TAG_imported_declaration, scope: !4, entity: !140, file: !14, line: 167)
!140 = !DISubprogram(name: "strtol", scope: !6, file: !6, line: 176, type: !141, flags: DIFlagPrototyped, spFlags: DISPFlagOptimized)
!141 = !DISubroutineType(types: !142)
!142 = !{!20, !109, !137, !9}
!143 = !DIImportedEntity(tag: DW_TAG_imported_declaration, scope: !4, entity: !144, file: !14, line: 168)
!144 = !DISubprogram(name: "strtoul", scope: !6, file: !6, line: 180, type: !145, flags: DIFlagPrototyped, spFlags: DISPFlagOptimized)
!145 = !DISubroutineType(types: !146)
!146 = !{!60, !109, !137, !9}
!147 = !DIImportedEntity(tag: DW_TAG_imported_declaration, scope: !4, entity: !148, file: !14, line: 169)
!148 = !DISubprogram(name: "system", scope: !6, file: !6, line: 784, type: !44, flags: DIFlagPrototyped, spFlags: DISPFlagOptimized)
!149 = !DIImportedEntity(tag: DW_TAG_imported_declaration, scope: !4, entity: !150, file: !14, line: 171)
!150 = !DISubprogram(name: "wcstombs", scope: !6, file: !6, line: 936, type: !151, flags: DIFlagPrototyped, spFlags: DISPFlagOptimized)
!151 = !DISubroutineType(types: !152)
!152 = !{!58, !153, !154, !58}
!153 = !DIDerivedType(tag: DW_TAG_restrict_type, baseType: !85)
!154 = !DIDerivedType(tag: DW_TAG_restrict_type, baseType: !155)
!155 = !DIDerivedType(tag: DW_TAG_pointer_type, baseType: !156, size: 64)
!156 = !DIDerivedType(tag: DW_TAG_const_type, baseType: !108)
!157 = !DIImportedEntity(tag: DW_TAG_imported_declaration, scope: !4, entity: !158, file: !14, line: 172)
!158 = !DISubprogram(name: "wctomb", scope: !6, file: !6, line: 929, type: !159, flags: DIFlagPrototyped, spFlags: DISPFlagOptimized)
!159 = !DISubroutineType(types: !160)
!160 = !{!9, !85, !108}
!161 = !DIImportedEntity(tag: DW_TAG_imported_declaration, scope: !162, entity: !163, file: !14, line: 200)
!162 = !DINamespace(name: "__gnu_cxx", scope: null)
!163 = !DIDerivedType(tag: DW_TAG_typedef, name: "lldiv_t", file: !6, line: 80, baseType: !164)
!164 = distinct !DICompositeType(tag: DW_TAG_structure_type, file: !6, line: 76, size: 128, flags: DIFlagTypePassByValue, elements: !165, identifier: "_ZTS7lldiv_t")
!165 = !{!166, !168}
!166 = !DIDerivedType(tag: DW_TAG_member, name: "quot", scope: !164, file: !6, line: 78, baseType: !167, size: 64)
!167 = !DIBasicType(name: "long long", size: 64, encoding: DW_ATE_signed)
!168 = !DIDerivedType(tag: DW_TAG_member, name: "rem", scope: !164, file: !6, line: 79, baseType: !167, size: 64, offset: 64)
!169 = !DIImportedEntity(tag: DW_TAG_imported_declaration, scope: !162, entity: !170, file: !14, line: 206)
!170 = !DISubprogram(name: "_Exit", scope: !6, file: !6, line: 629, type: !75, flags: DIFlagPrototyped | DIFlagNoReturn, spFlags: DISPFlagOptimized)
!171 = !DIImportedEntity(tag: DW_TAG_imported_declaration, scope: !162, entity: !172, file: !14, line: 210)
!172 = !DISubprogram(name: "llabs", scope: !6, file: !6, line: 844, type: !173, flags: DIFlagPrototyped, spFlags: DISPFlagOptimized)
!173 = !DISubroutineType(types: !174)
!174 = !{!167, !167}
!175 = !DIImportedEntity(tag: DW_TAG_imported_declaration, scope: !162, entity: !176, file: !14, line: 216)
!176 = !DISubprogram(name: "lldiv", scope: !6, file: !6, line: 858, type: !177, flags: DIFlagPrototyped, spFlags: DISPFlagOptimized)
!177 = !DISubroutineType(types: !178)
!178 = !{!163, !167, !167}
!179 = !DIImportedEntity(tag: DW_TAG_imported_declaration, scope: !162, entity: !180, file: !14, line: 227)
!180 = !DISubprogram(name: "atoll", scope: !6, file: !6, line: 373, type: !181, flags: DIFlagPrototyped, spFlags: DISPFlagOptimized)
!181 = !DISubroutineType(types: !182)
!182 = !{!167, !39}
!183 = !DIImportedEntity(tag: DW_TAG_imported_declaration, scope: !162, entity: !184, file: !14, line: 228)
!184 = !DISubprogram(name: "strtoll", scope: !6, file: !6, line: 200, type: !185, flags: DIFlagPrototyped, spFlags: DISPFlagOptimized)
!185 = !DISubroutineType(types: !186)
!186 = !{!167, !109, !137, !9}
!187 = !DIImportedEntity(tag: DW_TAG_imported_declaration, scope: !162, entity: !188, file: !14, line: 229)
!188 = !DISubprogram(name: "strtoull", scope: !6, file: !6, line: 205, type: !189, flags: DIFlagPrototyped, spFlags: DISPFlagOptimized)
!189 = !DISubroutineType(types: !190)
!190 = !{!191, !109, !137, !9}
!191 = !DIBasicType(name: "unsigned long long", size: 64, encoding: DW_ATE_unsigned)
!192 = !DIImportedEntity(tag: DW_TAG_imported_declaration, scope: !162, entity: !193, file: !14, line: 231)
!193 = !DISubprogram(name: "strtof", scope: !6, file: !6, line: 123, type: !194, flags: DIFlagPrototyped, spFlags: DISPFlagOptimized)
!194 = !DISubroutineType(types: !195)
!195 = !{!196, !109, !137}
!196 = !DIBasicType(name: "float", size: 32, encoding: DW_ATE_float)
!197 = !DIImportedEntity(tag: DW_TAG_imported_declaration, scope: !162, entity: !198, file: !14, line: 232)
!198 = !DISubprogram(name: "strtold", scope: !6, file: !6, line: 126, type: !199, flags: DIFlagPrototyped, spFlags: DISPFlagOptimized)
!199 = !DISubroutineType(types: !200)
!200 = !{!201, !109, !137}
!201 = !DIBasicType(name: "long double", size: 128, encoding: DW_ATE_float)
!202 = !DIImportedEntity(tag: DW_TAG_imported_declaration, scope: !4, entity: !163, file: !14, line: 240)
!203 = !DIImportedEntity(tag: DW_TAG_imported_declaration, scope: !4, entity: !170, file: !14, line: 242)
!204 = !DIImportedEntity(tag: DW_TAG_imported_declaration, scope: !4, entity: !172, file: !14, line: 244)
!205 = !DIImportedEntity(tag: DW_TAG_imported_declaration, scope: !4, entity: !206, file: !14, line: 245)
!206 = !DISubprogram(name: "div", linkageName: "_ZN9__gnu_cxx3divExx", scope: !162, file: !14, line: 213, type: !177, flags: DIFlagPrototyped, spFlags: DISPFlagOptimized)
!207 = !DIImportedEntity(tag: DW_TAG_imported_declaration, scope: !4, entity: !176, file: !14, line: 246)
!208 = !DIImportedEntity(tag: DW_TAG_imported_declaration, scope: !4, entity: !180, file: !14, line: 248)
!209 = !DIImportedEntity(tag: DW_TAG_imported_declaration, scope: !4, entity: !193, file: !14, line: 249)
!210 = !DIImportedEntity(tag: DW_TAG_imported_declaration, scope: !4, entity: !184, file: !14, line: 250)
!211 = !DIImportedEntity(tag: DW_TAG_imported_declaration, scope: !4, entity: !188, file: !14, line: 251)
!212 = !DIImportedEntity(tag: DW_TAG_imported_declaration, scope: !4, entity: !198, file: !14, line: 252)
!213 = !DIImportedEntity(tag: DW_TAG_imported_declaration, scope: !0, entity: !23, file: !214, line: 38)
!214 = !DIFile(filename: "/opt/compiler-explorer/gcc-12.2.0/lib/gcc/x86_64-linux-gnu/12.2.0/../../../../include/c++/12.2.0/stdlib.h", directory: "")
!215 = !DIImportedEntity(tag: DW_TAG_imported_declaration, scope: !0, entity: !27, file: !214, line: 39)
!216 = !DIImportedEntity(tag: DW_TAG_imported_declaration, scope: !0, entity: !74, file: !214, line: 40)
!217 = !DIImportedEntity(tag: DW_TAG_imported_declaration, scope: !0, entity: !32, file: !214, line: 43)
!218 = !DIImportedEntity(tag: DW_TAG_imported_declaration, scope: !0, entity: !119, file: !214, line: 46)
!219 = !DIImportedEntity(tag: DW_TAG_imported_declaration, scope: !0, entity: !12, file: !214, line: 51)
!220 = !DIImportedEntity(tag: DW_TAG_imported_declaration, scope: !0, entity: !16, file: !214, line: 52)
!221 = !DIImportedEntity(tag: DW_TAG_imported_declaration, scope: !0, entity: !222, file: !214, line: 54)
!222 = !DISubprogram(name: "abs", linkageName: "_ZSt3absg", scope: !4, file: !10, line: 103, type: !223, flags: DIFlagPrototyped, spFlags: DISPFlagOptimized)
!223 = !DISubroutineType(types: !224)
!224 = !{!225, !225}
!225 = !DIBasicType(name: "__float128", size: 128, encoding: DW_ATE_float)
!226 = !DIImportedEntity(tag: DW_TAG_imported_declaration, scope: !0, entity: !34, file: !214, line: 55)
!227 = !DIImportedEntity(tag: DW_TAG_imported_declaration, scope: !0, entity: !43, file: !214, line: 56)
!228 = !DIImportedEntity(tag: DW_TAG_imported_declaration, scope: !0, entity: !47, file: !214, line: 57)
!229 = !DIImportedEntity(tag: DW_TAG_imported_declaration, scope: !0, entity: !51, file: !214, line: 58)
!230 = !DIImportedEntity(tag: DW_TAG_imported_declaration, scope: !0, entity: !66, file: !214, line: 59)
!231 = !DIImportedEntity(tag: DW_TAG_imported_declaration, scope: !0, entity: !206, file: !214, line: 60)
!232 = !DIImportedEntity(tag: DW_TAG_imported_declaration, scope: !0, entity: !78, file: !214, line: 61)
!233 = !DIImportedEntity(tag: DW_TAG_imported_declaration, scope: !0, entity: !82, file: !214, line: 62)
!234 = !DIImportedEntity(tag: DW_TAG_imported_declaration, scope: !0, entity: !87, file: !214, line: 63)
!235 = !DIImportedEntity(tag: DW_TAG_imported_declaration, scope: !0, entity: !91, file: !214, line: 64)
!236 = !DIImportedEntity(tag: DW_TAG_imported_declaration, scope: !0, entity: !95, file: !214, line: 65)
!237 = !DIImportedEntity(tag: DW_TAG_imported_declaration, scope: !0, entity: !99, file: !214, line: 67)
!238 = !DIImportedEntity(tag: DW_TAG_imported_declaration, scope: !0, entity: !103, file: !214, line: 68)
!239 = !DIImportedEntity(tag: DW_TAG_imported_declaration, scope: !0, entity: !111, file: !214, line: 69)
!240 = !DIImportedEntity(tag: DW_TAG_imported_declaration, scope: !0, entity: !115, file: !214, line: 71)
!241 = !DIImportedEntity(tag: DW_TAG_imported_declaration, scope: !0, entity: !121, file: !214, line: 72)
!242 = !DIImportedEntity(tag: DW_TAG_imported_declaration, scope: !0, entity: !125, file: !214, line: 73)
!243 = !DIImportedEntity(tag: DW_TAG_imported_declaration, scope: !0, entity: !129, file: !214, line: 74)
!244 = !DIImportedEntity(tag: DW_TAG_imported_declaration, scope: !0, entity: !134, file: !214, line: 75)
!245 = !DIImportedEntity(tag: DW_TAG_imported_declaration, scope: !0, entity: !140, file: !214, line: 76)
!246 = !DIImportedEntity(tag: DW_TAG_imported_declaration, scope: !0, entity: !144, file: !214, line: 77)
!247 = !DIImportedEntity(tag: DW_TAG_imported_declaration, scope: !0, entity: !148, file: !214, line: 78)
!248 = !DIImportedEntity(tag: DW_TAG_imported_declaration, scope: !0, entity: !150, file: !214, line: 80)
!249 = !DIImportedEntity(tag: DW_TAG_imported_declaration, scope: !0, entity: !158, file: !214, line: 81)
!250 = !{i32 7, !"Dwarf Version", i32 4}
!251 = !{i32 2, !"Debug Info Version", i32 3}
!252 = !{i32 1, !"wchar_size", i32 4}
!253 = !{i32 7, !"PIC Level", i32 2}
!254 = !{i32 7, !"PIE Level", i32 2}
!255 = !{i32 7, !"uwtable", i32 2}
!256 = !{!"clang version 15.0.0 (https://github.com/llvm/llvm-project.git 4ba6a9c9f65bbc8bd06e3652cb20fd4dfc846137)"}
!257 = distinct !DISubprogram(name: "calc_neighborhood", linkageName: "_Z17calc_neighborhoodiiPA80_A120_i", scope: !258, file: !258, line: 17, type: !259, scopeLine: 18, flags: DIFlagPrototyped | DIFlagAllCallsDescribed, spFlags: DISPFlagDefinition | DISPFlagOptimized, unit: !0, retainedNodes: !266)
!258 = !DIFile(filename: "example.cpp", directory: "/app")
!259 = !DISubroutineType(types: !260)
!260 = !{!9, !9, !9, !261}
!261 = !DIDerivedType(tag: DW_TAG_pointer_type, baseType: !262, size: 64)
!262 = !DICompositeType(tag: DW_TAG_array_type, baseType: !9, size: 307200, elements: !263)
!263 = !{!264, !265}
!264 = !DISubrange(count: 80)
!265 = !DISubrange(count: 120)
!266 = !{!267, !268, !269, !270, !274, !275, !276, !277, !278, !279, !281, !284, !285}
!267 = !DILocalVariable(name: "ind_x", arg: 1, scope: !257, file: !258, line: 17, type: !9)
!268 = !DILocalVariable(name: "ind_y", arg: 2, scope: !257, file: !258, line: 17, type: !9)
!269 = !DILocalVariable(name: "squares", arg: 3, scope: !257, file: !258, line: 17, type: !261)
!270 = !DILocalVariable(name: "arr_movement_x", scope: !257, file: !258, line: 19, type: !271)
!271 = !DICompositeType(tag: DW_TAG_array_type, baseType: !9, size: 256, elements: !272)
!272 = !{!273}
!273 = !DISubrange(count: 8)
!274 = !DILocalVariable(name: "arr_movement_y", scope: !257, file: !258, line: 20, type: !271)
!275 = !DILocalVariable(name: "sz", scope: !257, file: !258, line: 21, type: !9)
!276 = !DILocalVariable(name: "next_x", scope: !257, file: !258, line: 23, type: !9)
!277 = !DILocalVariable(name: "next_y", scope: !257, file: !258, line: 23, type: !9)
!278 = !DILocalVariable(name: "res", scope: !257, file: !258, line: 24, type: !9)
!279 = !DILocalVariable(name: "i", scope: !280, file: !258, line: 26, type: !9)
!280 = distinct !DILexicalBlock(scope: !257, file: !258, line: 26, column: 5)
!281 = !DILocalVariable(name: "next_x", scope: !282, file: !258, line: 27, type: !9)
!282 = distinct !DILexicalBlock(scope: !283, file: !258, line: 26, column: 34)
!283 = distinct !DILexicalBlock(scope: !280, file: !258, line: 26, column: 5)
!284 = !DILocalVariable(name: "next_y", scope: !282, file: !258, line: 28, type: !9)
!285 = !DILocalVariable(name: "correctness", scope: !282, file: !258, line: 30, type: !9)
!286 = !{!287, !287, i64 0}
!287 = !{!"int", !288, i64 0}
!288 = !{!"omnipotent char", !289, i64 0}
!289 = !{!"Simple C++ TBAA"}
!290 = !DILocation(line: 17, column: 27, scope: !257)
!291 = !DILocation(line: 17, column: 38, scope: !257)
!292 = !{!293, !293, i64 0}
!293 = !{!"any pointer", !288, i64 0}
!294 = !DILocation(line: 17, column: 51, scope: !257)
!295 = !DILocation(line: 19, column: 5, scope: !257)
!296 = !DILocation(line: 19, column: 9, scope: !257)
!297 = !DILocation(line: 20, column: 5, scope: !257)
!298 = !DILocation(line: 20, column: 9, scope: !257)
!299 = !DILocation(line: 21, column: 5, scope: !257)
!300 = !DILocation(line: 21, column: 9, scope: !257)
!301 = !DILocation(line: 23, column: 5, scope: !257)
!302 = !DILocation(line: 23, column: 9, scope: !257)
!303 = !DILocation(line: 23, column: 17, scope: !257)
!304 = !DILocation(line: 24, column: 5, scope: !257)
!305 = !DILocation(line: 24, column: 9, scope: !257)
!306 = !DILocation(line: 26, column: 10, scope: !280)
!307 = !DILocation(line: 26, column: 14, scope: !280)
!308 = !DILocation(line: 26, column: 21, scope: !283)
!309 = !DILocation(line: 26, column: 25, scope: !283)
!310 = !DILocation(line: 26, column: 23, scope: !283)
!311 = !DILocation(line: 26, column: 5, scope: !280)
!312 = !DILocation(line: 26, column: 5, scope: !283)
!313 = !DILocation(line: 27, column: 9, scope: !282)
!314 = !DILocation(line: 27, column: 13, scope: !282)
!315 = !DILocation(line: 27, column: 22, scope: !282)
!316 = !DILocation(line: 27, column: 45, scope: !282)
!317 = !DILocation(line: 27, column: 30, scope: !282)
!318 = !DILocation(line: 27, column: 28, scope: !282)
!319 = !DILocation(line: 28, column: 9, scope: !282)
!320 = !DILocation(line: 28, column: 13, scope: !282)
!321 = !DILocation(line: 28, column: 22, scope: !282)
!322 = !DILocation(line: 28, column: 45, scope: !282)
!323 = !DILocation(line: 28, column: 30, scope: !282)
!324 = !DILocation(line: 28, column: 28, scope: !282)
!325 = !DILocation(line: 30, column: 9, scope: !282)
!326 = !DILocation(line: 30, column: 13, scope: !282)
!327 = !DILocation(line: 30, column: 28, scope: !282)
!328 = !DILocation(line: 30, column: 35, scope: !282)
!329 = !DILocation(line: 30, column: 40, scope: !282)
!330 = !DILocation(line: 30, column: 43, scope: !282)
!331 = !DILocation(line: 30, column: 50, scope: !282)
!332 = !DILocation(line: 30, column: 55, scope: !282)
!333 = !DILocation(line: 30, column: 58, scope: !282)
!334 = !DILocation(line: 30, column: 65, scope: !282)
!335 = !DILocation(line: 30, column: 78, scope: !282)
!336 = !DILocation(line: 30, column: 81, scope: !282)
!337 = !DILocation(line: 30, column: 88, scope: !282)
!338 = !DILocation(line: 0, scope: !282)
!339 = !DILocation(line: 30, column: 27, scope: !282)
!340 = !DILocation(line: 31, column: 13, scope: !341)
!341 = distinct !DILexicalBlock(scope: !282, file: !258, line: 31, column: 13)
!342 = !DILocation(line: 31, column: 25, scope: !341)
!343 = !DILocation(line: 31, column: 30, scope: !341)
!344 = !DILocation(line: 31, column: 39, scope: !341)
!345 = !DILocation(line: 31, column: 28, scope: !341)
!346 = !DILocation(line: 31, column: 47, scope: !341)
!347 = !DILocation(line: 31, column: 55, scope: !341)
!348 = !DILocation(line: 31, column: 13, scope: !282)
!349 = !DILocation(line: 32, column: 16, scope: !350)
!350 = distinct !DILexicalBlock(scope: !341, file: !258, line: 31, column: 61)
!351 = !DILocation(line: 33, column: 9, scope: !350)
!352 = !DILocation(line: 34, column: 5, scope: !283)
!353 = !DILocation(line: 34, column: 5, scope: !282)
!354 = !DILocation(line: 26, column: 29, scope: !283)
!355 = distinct !{!355, !311, !356, !357}
!356 = !DILocation(line: 34, column: 5, scope: !280)
!357 = !{!"llvm.loop.mustprogress"}
!358 = !DILocation(line: 36, column: 12, scope: !257)
!359 = !DILocation(line: 37, column: 1, scope: !257)
!360 = !DILocation(line: 36, column: 5, scope: !257)
!361 = distinct !DISubprogram(name: "fill_next", linkageName: "_Z9fill_nextPA80_A120_iS1_", scope: !258, file: !258, line: 39, type: !362, scopeLine: 40, flags: DIFlagPrototyped | DIFlagAllCallsDescribed, spFlags: DISPFlagDefinition | DISPFlagOptimized, unit: !0, retainedNodes: !364)
!362 = !DISubroutineType(types: !363)
!363 = !{null, !261, !261}
!364 = !{!365, !366, !367, !368, !370, !374, !377, !379}
!365 = !DILocalVariable(name: "squares", arg: 1, scope: !361, file: !258, line: 39, type: !261)
!366 = !DILocalVariable(name: "squares_next", arg: 2, scope: !361, file: !258, line: 39, type: !261)
!367 = !DILocalVariable(name: "neigbors", scope: !361, file: !258, line: 41, type: !9)
!368 = !DILocalVariable(name: "i", scope: !369, file: !258, line: 42, type: !9)
!369 = distinct !DILexicalBlock(scope: !361, file: !258, line: 42, column: 5)
!370 = !DILocalVariable(name: "j", scope: !371, file: !258, line: 43, type: !9)
!371 = distinct !DILexicalBlock(scope: !372, file: !258, line: 43, column: 9)
!372 = distinct !DILexicalBlock(scope: !373, file: !258, line: 42, column: 42)
!373 = distinct !DILexicalBlock(scope: !369, file: !258, line: 42, column: 5)
!374 = !DILocalVariable(name: "death_condition", scope: !375, file: !258, line: 46, type: !9)
!375 = distinct !DILexicalBlock(scope: !376, file: !258, line: 43, column: 46)
!376 = distinct !DILexicalBlock(scope: !371, file: !258, line: 43, column: 9)
!377 = !DILocalVariable(name: "i", scope: !378, file: !258, line: 54, type: !9)
!378 = distinct !DILexicalBlock(scope: !361, file: !258, line: 54, column: 5)
!379 = !DILocalVariable(name: "j", scope: !380, file: !258, line: 55, type: !9)
!380 = distinct !DILexicalBlock(scope: !381, file: !258, line: 55, column: 9)
!381 = distinct !DILexicalBlock(scope: !382, file: !258, line: 54, column: 42)
!382 = distinct !DILexicalBlock(scope: !378, file: !258, line: 54, column: 5)
!383 = !DILocation(line: 39, column: 22, scope: !361)
!384 = !DILocation(line: 39, column: 62, scope: !361)
!385 = !DILocation(line: 41, column: 5, scope: !361)
!386 = !DILocation(line: 41, column: 9, scope: !361)
!387 = !DILocation(line: 42, column: 10, scope: !369)
!388 = !DILocation(line: 42, column: 14, scope: !369)
!389 = !DILocation(line: 42, column: 21, scope: !373)
!390 = !DILocation(line: 42, column: 23, scope: !373)
!391 = !DILocation(line: 42, column: 5, scope: !369)
!392 = !DILocation(line: 42, column: 5, scope: !373)
!393 = !DILocation(line: 43, column: 14, scope: !371)
!394 = !DILocation(line: 43, column: 18, scope: !371)
!395 = !DILocation(line: 43, column: 25, scope: !376)
!396 = !DILocation(line: 43, column: 27, scope: !376)
!397 = !DILocation(line: 43, column: 9, scope: !371)
!398 = !DILocation(line: 43, column: 9, scope: !376)
!399 = !DILocation(line: 44, column: 42, scope: !375)
!400 = !DILocation(line: 44, column: 45, scope: !375)
!401 = !DILocation(line: 44, column: 48, scope: !375)
!402 = !DILocation(line: 44, column: 24, scope: !375)
!403 = !DILocation(line: 44, column: 22, scope: !375)
!404 = !DILocation(line: 46, column: 13, scope: !375)
!405 = !DILocation(line: 46, column: 17, scope: !375)
!406 = !DILocation(line: 46, column: 35, scope: !375)
!407 = !DILocation(line: 46, column: 44, scope: !375)
!408 = !DILocation(line: 46, column: 48, scope: !375)
!409 = !DILocation(line: 46, column: 51, scope: !375)
!410 = !DILocation(line: 46, column: 60, scope: !375)
!411 = !DILocation(line: 47, column: 17, scope: !412)
!412 = distinct !DILexicalBlock(scope: !375, file: !258, line: 47, column: 17)
!413 = !DILocation(line: 47, column: 33, scope: !412)
!414 = !DILocation(line: 47, column: 17, scope: !375)
!415 = !DILocation(line: 48, column: 19, scope: !416)
!416 = distinct !DILexicalBlock(scope: !412, file: !258, line: 47, column: 38)
!417 = !DILocation(line: 48, column: 33, scope: !416)
!418 = !DILocation(line: 48, column: 17, scope: !416)
!419 = !DILocation(line: 48, column: 36, scope: !416)
!420 = !DILocation(line: 48, column: 39, scope: !416)
!421 = !DILocation(line: 49, column: 17, scope: !416)
!422 = !DILocation(line: 51, column: 15, scope: !375)
!423 = !DILocation(line: 51, column: 29, scope: !375)
!424 = !DILocation(line: 51, column: 13, scope: !375)
!425 = !DILocation(line: 51, column: 32, scope: !375)
!426 = !DILocation(line: 51, column: 35, scope: !375)
!427 = !DILocation(line: 52, column: 9, scope: !376)
!428 = !DILocation(line: 52, column: 9, scope: !375)
!429 = !DILocation(line: 43, column: 41, scope: !376)
!430 = distinct !{!430, !397, !431, !357}
!431 = !DILocation(line: 52, column: 9, scope: !371)
!432 = !DILocation(line: 53, column: 5, scope: !372)
!433 = !DILocation(line: 42, column: 37, scope: !373)
!434 = distinct !{!434, !391, !435, !357}
!435 = !DILocation(line: 53, column: 5, scope: !369)
!436 = !DILocation(line: 54, column: 10, scope: !378)
!437 = !DILocation(line: 54, column: 14, scope: !378)
!438 = !DILocation(line: 54, column: 21, scope: !382)
!439 = !DILocation(line: 54, column: 23, scope: !382)
!440 = !DILocation(line: 54, column: 5, scope: !378)
!441 = !DILocation(line: 54, column: 5, scope: !382)
!442 = !DILocation(line: 55, column: 14, scope: !380)
!443 = !DILocation(line: 55, column: 18, scope: !380)
!444 = !DILocation(line: 55, column: 25, scope: !445)
!445 = distinct !DILexicalBlock(scope: !380, file: !258, line: 55, column: 9)
!446 = !DILocation(line: 55, column: 27, scope: !445)
!447 = !DILocation(line: 55, column: 9, scope: !380)
!448 = !DILocation(line: 55, column: 9, scope: !445)
!449 = !DILocation(line: 56, column: 34, scope: !450)
!450 = distinct !DILexicalBlock(scope: !445, file: !258, line: 55, column: 46)
!451 = !DILocation(line: 56, column: 48, scope: !450)
!452 = !DILocation(line: 56, column: 32, scope: !450)
!453 = !DILocation(line: 56, column: 51, scope: !450)
!454 = !DILocation(line: 56, column: 15, scope: !450)
!455 = !DILocation(line: 56, column: 24, scope: !450)
!456 = !DILocation(line: 56, column: 13, scope: !450)
!457 = !DILocation(line: 56, column: 27, scope: !450)
!458 = !DILocation(line: 56, column: 30, scope: !450)
!459 = !DILocation(line: 57, column: 9, scope: !450)
!460 = !DILocation(line: 55, column: 41, scope: !445)
!461 = distinct !{!461, !447, !462, !357}
!462 = !DILocation(line: 57, column: 9, scope: !380)
!463 = !DILocation(line: 58, column: 5, scope: !381)
!464 = !DILocation(line: 54, column: 37, scope: !382)
!465 = distinct !{!465, !440, !466, !357}
!466 = !DILocation(line: 58, column: 5, scope: !378)
!467 = !DILocation(line: 59, column: 1, scope: !361)
!468 = distinct !DISubprogram(name: "printSquare", linkageName: "_Z11printSquarePA80_A120_iii", scope: !258, file: !258, line: 61, type: !469, scopeLine: 61, flags: DIFlagPrototyped | DIFlagAllCallsDescribed, spFlags: DISPFlagDefinition | DISPFlagOptimized, unit: !0, retainedNodes: !471)
!469 = !DISubroutineType(types: !470)
!470 = !{null, !261, !9, !9}
!471 = !{!472, !473, !474, !475, !476, !477, !481, !485, !487}
!472 = !DILocalVariable(name: "squares", arg: 1, scope: !468, file: !258, line: 61, type: !261)
!473 = !DILocalVariable(name: "x", arg: 2, scope: !468, file: !258, line: 61, type: !9)
!474 = !DILocalVariable(name: "y", arg: 3, scope: !468, file: !258, line: 61, type: !9)
!475 = !DILocalVariable(name: "black", scope: !468, file: !258, line: 62, type: !9)
!476 = !DILocalVariable(name: "darkorchid", scope: !468, file: !258, line: 63, type: !9)
!477 = !DILocalVariable(name: "i", scope: !478, file: !258, line: 66, type: !9)
!478 = distinct !DILexicalBlock(scope: !479, file: !258, line: 66, column: 9)
!479 = distinct !DILexicalBlock(scope: !480, file: !258, line: 65, column: 32)
!480 = distinct !DILexicalBlock(scope: !468, file: !258, line: 65, column: 9)
!481 = !DILocalVariable(name: "j", scope: !482, file: !258, line: 67, type: !9)
!482 = distinct !DILexicalBlock(scope: !483, file: !258, line: 67, column: 13)
!483 = distinct !DILexicalBlock(scope: !484, file: !258, line: 66, column: 43)
!484 = distinct !DILexicalBlock(scope: !478, file: !258, line: 66, column: 9)
!485 = !DILocalVariable(name: "i", scope: !486, file: !258, line: 75, type: !9)
!486 = distinct !DILexicalBlock(scope: !468, file: !258, line: 75, column: 5)
!487 = !DILocalVariable(name: "j", scope: !488, file: !258, line: 76, type: !9)
!488 = distinct !DILexicalBlock(scope: !489, file: !258, line: 76, column: 9)
!489 = distinct !DILexicalBlock(scope: !490, file: !258, line: 75, column: 39)
!490 = distinct !DILexicalBlock(scope: !486, file: !258, line: 75, column: 5)
!491 = !DILocation(line: 61, column: 24, scope: !468)
!492 = !DILocation(line: 61, column: 62, scope: !468)
!493 = !DILocation(line: 61, column: 69, scope: !468)
!494 = !DILocation(line: 62, column: 5, scope: !468)
!495 = !DILocation(line: 62, column: 9, scope: !468)
!496 = !DILocation(line: 63, column: 5, scope: !468)
!497 = !DILocation(line: 63, column: 9, scope: !468)
!498 = !DILocation(line: 65, column: 11, scope: !480)
!499 = !DILocation(line: 65, column: 20, scope: !480)
!500 = !DILocation(line: 65, column: 9, scope: !480)
!501 = !DILocation(line: 65, column: 23, scope: !480)
!502 = !DILocation(line: 65, column: 26, scope: !480)
!503 = !DILocation(line: 65, column: 9, scope: !468)
!504 = !DILocation(line: 66, column: 14, scope: !478)
!505 = !DILocation(line: 66, column: 18, scope: !478)
!506 = !DILocation(line: 66, column: 25, scope: !484)
!507 = !DILocation(line: 66, column: 27, scope: !484)
!508 = !DILocation(line: 66, column: 9, scope: !478)
!509 = !DILocation(line: 66, column: 9, scope: !484)
!510 = !DILocation(line: 67, column: 18, scope: !482)
!511 = !DILocation(line: 67, column: 22, scope: !482)
!512 = !DILocation(line: 67, column: 29, scope: !513)
!513 = distinct !DILexicalBlock(scope: !482, file: !258, line: 67, column: 13)
!514 = !DILocation(line: 67, column: 31, scope: !513)
!515 = !DILocation(line: 67, column: 13, scope: !482)
!516 = !DILocation(line: 67, column: 13, scope: !513)
!517 = !DILocation(line: 68, column: 29, scope: !518)
!518 = distinct !DILexicalBlock(scope: !513, file: !258, line: 67, column: 47)
!519 = !DILocation(line: 68, column: 31, scope: !518)
!520 = !DILocation(line: 68, column: 43, scope: !518)
!521 = !DILocation(line: 68, column: 41, scope: !518)
!522 = !DILocation(line: 68, column: 46, scope: !518)
!523 = !DILocation(line: 68, column: 48, scope: !518)
!524 = !DILocation(line: 68, column: 60, scope: !518)
!525 = !DILocation(line: 68, column: 58, scope: !518)
!526 = !DILocation(line: 68, column: 63, scope: !518)
!527 = !DILocation(line: 68, column: 17, scope: !518)
!528 = !DILocation(line: 69, column: 13, scope: !518)
!529 = !DILocation(line: 67, column: 42, scope: !513)
!530 = distinct !{!530, !515, !531, !357}
!531 = !DILocation(line: 69, column: 13, scope: !482)
!532 = !DILocation(line: 70, column: 9, scope: !483)
!533 = !DILocation(line: 66, column: 38, scope: !484)
!534 = distinct !{!534, !508, !535, !357}
!535 = !DILocation(line: 70, column: 9, scope: !478)
!536 = !DILocation(line: 72, column: 9, scope: !479)
!537 = !DILocation(line: 75, column: 10, scope: !486)
!538 = !DILocation(line: 75, column: 14, scope: !486)
!539 = !DILocation(line: 75, column: 21, scope: !490)
!540 = !DILocation(line: 75, column: 23, scope: !490)
!541 = !DILocation(line: 75, column: 5, scope: !486)
!542 = !DILocation(line: 75, column: 5, scope: !490)
!543 = !DILocation(line: 76, column: 14, scope: !488)
!544 = !DILocation(line: 76, column: 18, scope: !488)
!545 = !DILocation(line: 76, column: 25, scope: !546)
!546 = distinct !DILexicalBlock(scope: !488, file: !258, line: 76, column: 9)
!547 = !DILocation(line: 76, column: 27, scope: !546)
!548 = !DILocation(line: 76, column: 9, scope: !488)
!549 = !DILocation(line: 76, column: 9, scope: !546)
!550 = !DILocation(line: 77, column: 25, scope: !551)
!551 = distinct !DILexicalBlock(scope: !546, file: !258, line: 76, column: 43)
!552 = !DILocation(line: 77, column: 27, scope: !551)
!553 = !DILocation(line: 77, column: 39, scope: !551)
!554 = !DILocation(line: 77, column: 37, scope: !551)
!555 = !DILocation(line: 77, column: 42, scope: !551)
!556 = !DILocation(line: 77, column: 44, scope: !551)
!557 = !DILocation(line: 77, column: 56, scope: !551)
!558 = !DILocation(line: 77, column: 54, scope: !551)
!559 = !DILocation(line: 77, column: 59, scope: !551)
!560 = !DILocation(line: 77, column: 13, scope: !551)
!561 = !DILocation(line: 78, column: 9, scope: !551)
!562 = !DILocation(line: 76, column: 38, scope: !546)
!563 = distinct !{!563, !548, !564, !357}
!564 = !DILocation(line: 78, column: 9, scope: !488)
!565 = !DILocation(line: 79, column: 5, scope: !489)
!566 = !DILocation(line: 75, column: 34, scope: !490)
!567 = distinct !{!567, !541, !568, !357}
!568 = !DILocation(line: 79, column: 5, scope: !486)
!569 = !DILocation(line: 80, column: 1, scope: !468)
!570 = !DISubprogram(name: "simPutPixel", linkageName: "_Z11simPutPixeliii", scope: !258, file: !258, line: 13, type: !571, flags: DIFlagPrototyped, spFlags: DISPFlagOptimized, retainedNodes: !573)
!571 = !DISubroutineType(types: !572)
!572 = !{null, !9, !9, !9}
!573 = !{}
!574 = distinct !DISubprogram(name: "app", linkageName: "_Z3appv", scope: !258, file: !258, line: 82, type: !24, scopeLine: 82, flags: DIFlagPrototyped | DIFlagAllCallsDescribed, spFlags: DISPFlagDefinition | DISPFlagOptimized, unit: !0, retainedNodes: !575)
!575 = !{!576, !577, !578, !579, !581, !585, !588, !590, !594}
!576 = !DILocalVariable(name: "squares", scope: !574, file: !258, line: 83, type: !262)
!577 = !DILocalVariable(name: "squares_next", scope: !574, file: !258, line: 84, type: !262)
!578 = !DILocalVariable(name: "sqr_num", scope: !574, file: !258, line: 87, type: !9)
!579 = !DILocalVariable(name: "i", scope: !580, file: !258, line: 90, type: !9)
!580 = distinct !DILexicalBlock(scope: !574, file: !258, line: 90, column: 5)
!581 = !DILocalVariable(name: "j", scope: !582, file: !258, line: 91, type: !9)
!582 = distinct !DILexicalBlock(scope: !583, file: !258, line: 91, column: 9)
!583 = distinct !DILexicalBlock(scope: !584, file: !258, line: 90, column: 42)
!584 = distinct !DILexicalBlock(scope: !580, file: !258, line: 90, column: 5)
!585 = !DILocalVariable(name: "random", scope: !586, file: !258, line: 92, type: !9)
!586 = distinct !DILexicalBlock(scope: !587, file: !258, line: 91, column: 46)
!587 = distinct !DILexicalBlock(scope: !582, file: !258, line: 91, column: 9)
!588 = !DILocalVariable(name: "step", scope: !589, file: !258, line: 102, type: !9)
!589 = distinct !DILexicalBlock(scope: !574, file: !258, line: 102, column: 5)
!590 = !DILocalVariable(name: "y", scope: !591, file: !258, line: 103, type: !9)
!591 = distinct !DILexicalBlock(scope: !592, file: !258, line: 103, column: 9)
!592 = distinct !DILexicalBlock(scope: !593, file: !258, line: 102, column: 45)
!593 = distinct !DILexicalBlock(scope: !589, file: !258, line: 102, column: 5)
!594 = !DILocalVariable(name: "x", scope: !595, file: !258, line: 104, type: !9)
!595 = distinct !DILexicalBlock(scope: !596, file: !258, line: 104, column: 13)
!596 = distinct !DILexicalBlock(scope: !597, file: !258, line: 103, column: 46)
!597 = distinct !DILexicalBlock(scope: !591, file: !258, line: 103, column: 9)
!598 = !DILocation(line: 83, column: 5, scope: !574)
!599 = !DILocation(line: 83, column: 9, scope: !574)
!600 = !DILocation(line: 84, column: 5, scope: !574)
!601 = !DILocation(line: 84, column: 9, scope: !574)
!602 = !DILocation(line: 87, column: 5, scope: !574)
!603 = !DILocation(line: 87, column: 9, scope: !574)
!604 = !DILocation(line: 90, column: 10, scope: !580)
!605 = !DILocation(line: 90, column: 14, scope: !580)
!606 = !DILocation(line: 90, column: 21, scope: !584)
!607 = !DILocation(line: 90, column: 23, scope: !584)
!608 = !DILocation(line: 90, column: 5, scope: !580)
!609 = !DILocation(line: 90, column: 5, scope: !584)
!610 = !DILocation(line: 91, column: 14, scope: !582)
!611 = !DILocation(line: 91, column: 18, scope: !582)
!612 = !DILocation(line: 91, column: 25, scope: !587)
!613 = !DILocation(line: 91, column: 27, scope: !587)
!614 = !DILocation(line: 91, column: 9, scope: !582)
!615 = !DILocation(line: 91, column: 9, scope: !587)
!616 = !DILocation(line: 92, column: 13, scope: !586)
!617 = !DILocation(line: 92, column: 17, scope: !586)
!618 = !DILocation(line: 92, column: 26, scope: !586)
!619 = !DILocation(line: 92, column: 38, scope: !586)
!620 = !DILocation(line: 92, column: 36, scope: !586)
!621 = !DILocation(line: 93, column: 17, scope: !622)
!622 = distinct !DILexicalBlock(scope: !586, file: !258, line: 93, column: 17)
!623 = !DILocation(line: 93, column: 24, scope: !622)
!624 = !DILocation(line: 93, column: 17, scope: !586)
!625 = !DILocation(line: 94, column: 25, scope: !626)
!626 = distinct !DILexicalBlock(scope: !622, file: !258, line: 93, column: 29)
!627 = !DILocation(line: 94, column: 17, scope: !626)
!628 = !DILocation(line: 94, column: 28, scope: !626)
!629 = !DILocation(line: 94, column: 31, scope: !626)
!630 = !DILocation(line: 95, column: 17, scope: !626)
!631 = !DILocation(line: 97, column: 21, scope: !586)
!632 = !DILocation(line: 97, column: 13, scope: !586)
!633 = !DILocation(line: 97, column: 24, scope: !586)
!634 = !DILocation(line: 97, column: 27, scope: !586)
!635 = !DILocation(line: 98, column: 9, scope: !587)
!636 = !DILocation(line: 98, column: 9, scope: !586)
!637 = !DILocation(line: 91, column: 41, scope: !587)
!638 = distinct !{!638, !614, !639, !357}
!639 = !DILocation(line: 98, column: 9, scope: !582)
!640 = !DILocation(line: 99, column: 5, scope: !583)
!641 = !DILocation(line: 90, column: 37, scope: !584)
!642 = distinct !{!642, !608, !643, !357}
!643 = !DILocation(line: 99, column: 5, scope: !580)
!644 = !DILocation(line: 102, column: 10, scope: !589)
!645 = !DILocation(line: 102, column: 14, scope: !589)
!646 = !DILocation(line: 102, column: 24, scope: !593)
!647 = !DILocation(line: 102, column: 29, scope: !593)
!648 = !DILocation(line: 102, column: 5, scope: !589)
!649 = !DILocation(line: 102, column: 5, scope: !593)
!650 = !DILocation(line: 103, column: 14, scope: !591)
!651 = !DILocation(line: 103, column: 18, scope: !591)
!652 = !DILocation(line: 103, column: 25, scope: !597)
!653 = !DILocation(line: 103, column: 27, scope: !597)
!654 = !DILocation(line: 103, column: 9, scope: !591)
!655 = !DILocation(line: 103, column: 9, scope: !597)
!656 = !DILocation(line: 104, column: 18, scope: !595)
!657 = !DILocation(line: 104, column: 22, scope: !595)
!658 = !DILocation(line: 104, column: 29, scope: !659)
!659 = distinct !DILexicalBlock(scope: !595, file: !258, line: 104, column: 13)
!660 = !DILocation(line: 104, column: 31, scope: !659)
!661 = !DILocation(line: 104, column: 13, scope: !595)
!662 = !DILocation(line: 104, column: 13, scope: !659)
!663 = !DILocation(line: 105, column: 39, scope: !664)
!664 = distinct !DILexicalBlock(scope: !659, file: !258, line: 104, column: 50)
!665 = !DILocation(line: 105, column: 42, scope: !664)
!666 = !DILocation(line: 105, column: 17, scope: !664)
!667 = !DILocation(line: 106, column: 13, scope: !664)
!668 = !DILocation(line: 104, column: 45, scope: !659)
